
./output/riscv-hash-sw.elf:     file format elf64-littleriscv


Disassembly of section .text.init:

0000000080000000 <_start>:
    80000000:	00000297          	auipc	t0,0x0
    80000004:	0e028293          	addi	t0,t0,224 # 800000e0 <trap_entry>
    80000008:	30529073          	csrw	mtvec,t0
    8000000c:	42ad                	li	t0,11
    8000000e:	3002b073          	csrc	mstatus,t0
    80000012:	6285                	lui	t0,0x1
    80000014:	8882829b          	addiw	t0,t0,-1912 # 888 <_tbss_end+0x888>
    80000018:	3042b073          	csrc	mie,t0
    8000001c:	0c002fb7          	lui	t6,0xc002
    80000020:	000e7e13          	andi	t3,t3,0
    80000024:	8e72                	mv	t3,t3
    80000026:	01cf8023          	sb	t3,0(t6) # c002000 <_free_space+0x40109b8>
    8000002a:	01cf80a3          	sb	t3,1(t6)
    8000002e:	01cf8123          	sb	t3,2(t6)
    80000032:	01cf81a3          	sb	t3,3(t6)
    80000036:	0c000fb7          	lui	t6,0xc000
    8000003a:	000e7e13          	andi	t3,t3,0
    8000003e:	01cf8023          	sb	t3,0(t6) # c000000 <_free_space+0x400e9b8>
    80000042:	01cf80a3          	sb	t3,1(t6)
    80000046:	01cf8123          	sb	t3,2(t6)
    8000004a:	01cf81a3          	sb	t3,3(t6)
    8000004e:	4081                	li	ra,0
    80000050:	4101                	li	sp,0
    80000052:	4181                	li	gp,0
    80000054:	4201                	li	tp,0
    80000056:	4281                	li	t0,0
    80000058:	4301                	li	t1,0
    8000005a:	4381                	li	t2,0
    8000005c:	4401                	li	s0,0
    8000005e:	4481                	li	s1,0
    80000060:	4501                	li	a0,0
    80000062:	4581                	li	a1,0
    80000064:	4601                	li	a2,0
    80000066:	4681                	li	a3,0
    80000068:	4701                	li	a4,0
    8000006a:	4781                	li	a5,0
    8000006c:	4801                	li	a6,0
    8000006e:	4881                	li	a7,0
    80000070:	4901                	li	s2,0
    80000072:	4981                	li	s3,0
    80000074:	4a01                	li	s4,0
    80000076:	4a81                	li	s5,0
    80000078:	4b01                	li	s6,0
    8000007a:	4b81                	li	s7,0
    8000007c:	4c01                	li	s8,0
    8000007e:	4c81                	li	s9,0
    80000080:	4d01                	li	s10,0
    80000082:	4d81                	li	s11,0
    80000084:	4e01                	li	t3,0
    80000086:	4e81                	li	t4,0
    80000088:	4f01                	li	t5,0
    8000008a:	4f81                	li	t6,0
    8000008c:	00006197          	auipc	gp,0x6
    80000090:	66c18193          	addi	gp,gp,1644 # 800066f8 <__global_pointer$>

0000000080000094 <init_bss>:
    80000094:	23818513          	addi	a0,gp,568 # 80006930 <mcause_trap_table>
    80000098:	0000e597          	auipc	a1,0xe
    8000009c:	51c58593          	addi	a1,a1,1308 # 8000e5b4 <bloom_filter+0x3e4>
    800000a0:	4601                	li	a2,0
    800000a2:	c110                	sw	a2,0(a0)
    800000a4:	00b57463          	bgeu	a0,a1,800000ac <init_sbss>
    800000a8:	0511                	addi	a0,a0,4
    800000aa:	bfe5                	j	800000a2 <init_bss+0xe>

00000000800000ac <init_sbss>:
    800000ac:	85018513          	addi	a0,gp,-1968 # 80005f48 <uart_instance>
    800000b0:	87018593          	addi	a1,gp,-1936 # 80005f68 <uart2_rcv_isr_count>
    800000b4:	4601                	li	a2,0
    800000b6:	c110                	sw	a2,0(a0)
    800000b8:	00b57463          	bgeu	a0,a1,800000c0 <init_sbss+0x14>
    800000bc:	0511                	addi	a0,a0,4
    800000be:	bfe5                	j	800000b6 <init_sbss+0xa>
    800000c0:	08000117          	auipc	sp,0x8000
    800000c4:	b4010113          	addi	sp,sp,-1216 # 87fffc00 <__stack_pointer$>
    800000c8:	0000e217          	auipc	tp,0xe
    800000cc:	52f20213          	addi	tp,tp,1327 # 8000e5f7 <__bss_end+0x3f>
    800000d0:	fc027213          	andi	tp,tp,-64
    800000d4:	2560106f          	j	8000132a <init>
    800000d8:	a001                	j	800000d8 <init_sbss+0x2c>

Disassembly of section .text:

00000000800000e0 <trap_entry>:
    800000e0:	7111                	addi	sp,sp,-256
    800000e2:	0001                	nop
    800000e4:	00000013          	nop
    800000e8:	e406                	sd	ra,8(sp)
    800000ea:	e80a                	sd	sp,16(sp)
    800000ec:	ec0e                	sd	gp,24(sp)
    800000ee:	f012                	sd	tp,32(sp)
    800000f0:	f416                	sd	t0,40(sp)
    800000f2:	f81a                	sd	t1,48(sp)
    800000f4:	fc1e                	sd	t2,56(sp)
    800000f6:	e0a2                	sd	s0,64(sp)
    800000f8:	e4a6                	sd	s1,72(sp)
    800000fa:	e8aa                	sd	a0,80(sp)
    800000fc:	ecae                	sd	a1,88(sp)
    800000fe:	f0b2                	sd	a2,96(sp)
    80000100:	f4b6                	sd	a3,104(sp)
    80000102:	f8ba                	sd	a4,112(sp)
    80000104:	fcbe                	sd	a5,120(sp)
    80000106:	e142                	sd	a6,128(sp)
    80000108:	e546                	sd	a7,136(sp)
    8000010a:	e94a                	sd	s2,144(sp)
    8000010c:	ed4e                	sd	s3,152(sp)
    8000010e:	f152                	sd	s4,160(sp)
    80000110:	f556                	sd	s5,168(sp)
    80000112:	f95a                	sd	s6,176(sp)
    80000114:	fd5e                	sd	s7,184(sp)
    80000116:	e1e2                	sd	s8,192(sp)
    80000118:	e5e6                	sd	s9,200(sp)
    8000011a:	e9ea                	sd	s10,208(sp)
    8000011c:	edee                	sd	s11,216(sp)
    8000011e:	f1f2                	sd	t3,224(sp)
    80000120:	f5f6                	sd	t4,232(sp)
    80000122:	f9fa                	sd	t5,240(sp)
    80000124:	fdfe                	sd	t6,248(sp)
    80000126:	34202573          	csrr	a0,mcause
    8000012a:	341025f3          	csrr	a1,mepc
    8000012e:	860a                	mv	a2,sp
    80000130:	0c6000ef          	jal	ra,800001f6 <handle_trap>
    80000134:	34151073          	csrw	mepc,a0
    80000138:	60a2                	ld	ra,8(sp)
    8000013a:	6142                	ld	sp,16(sp)
    8000013c:	61e2                	ld	gp,24(sp)
    8000013e:	7202                	ld	tp,32(sp)
    80000140:	72a2                	ld	t0,40(sp)
    80000142:	7342                	ld	t1,48(sp)
    80000144:	73e2                	ld	t2,56(sp)
    80000146:	6406                	ld	s0,64(sp)
    80000148:	64a6                	ld	s1,72(sp)
    8000014a:	6546                	ld	a0,80(sp)
    8000014c:	65e6                	ld	a1,88(sp)
    8000014e:	7606                	ld	a2,96(sp)
    80000150:	76a6                	ld	a3,104(sp)
    80000152:	7746                	ld	a4,112(sp)
    80000154:	77e6                	ld	a5,120(sp)
    80000156:	680a                	ld	a6,128(sp)
    80000158:	68aa                	ld	a7,136(sp)
    8000015a:	694a                	ld	s2,144(sp)
    8000015c:	69ea                	ld	s3,152(sp)
    8000015e:	7a0a                	ld	s4,160(sp)
    80000160:	7aaa                	ld	s5,168(sp)
    80000162:	7b4a                	ld	s6,176(sp)
    80000164:	7bea                	ld	s7,184(sp)
    80000166:	6c0e                	ld	s8,192(sp)
    80000168:	6cae                	ld	s9,200(sp)
    8000016a:	6d4e                	ld	s10,208(sp)
    8000016c:	6dee                	ld	s11,216(sp)
    8000016e:	7e0e                	ld	t3,224(sp)
    80000170:	7eae                	ld	t4,232(sp)
    80000172:	7f4e                	ld	t5,240(sp)
    80000174:	7fee                	ld	t6,248(sp)
    80000176:	6111                	addi	sp,sp,256
    80000178:	30200073          	mret
	...

000000008000017e <extract_ie_code>:
    8000017e:	7179                	addi	sp,sp,-48
    80000180:	f406                	sd	ra,40(sp)
    80000182:	f022                	sd	s0,32(sp)
    80000184:	1800                	addi	s0,sp,48
    80000186:	87aa                	mv	a5,a0
    80000188:	fcf42e23          	sw	a5,-36(s0)
    8000018c:	00005517          	auipc	a0,0x5
    80000190:	c2c50513          	addi	a0,a0,-980 # 80004db8 <__rodata_start>
    80000194:	13a000ef          	jal	ra,800002ce <log_trace>
    80000198:	fdc42783          	lw	a5,-36(s0)
    8000019c:	873e                	mv	a4,a5
    8000019e:	800007b7          	lui	a5,0x80000
    800001a2:	fff7c793          	not	a5,a5
    800001a6:	8ff9                	and	a5,a5,a4
    800001a8:	fef42623          	sw	a5,-20(s0)
    800001ac:	fec42783          	lw	a5,-20(s0)
    800001b0:	85be                	mv	a1,a5
    800001b2:	00005517          	auipc	a0,0x5
    800001b6:	c2650513          	addi	a0,a0,-986 # 80004dd8 <__rodata_start+0x20>
    800001ba:	182000ef          	jal	ra,8000033c <log_debug>
    800001be:	00005517          	auipc	a0,0x5
    800001c2:	c3250513          	addi	a0,a0,-974 # 80004df0 <__rodata_start+0x38>
    800001c6:	108000ef          	jal	ra,800002ce <log_trace>
    800001ca:	fec42783          	lw	a5,-20(s0)
    800001ce:	853e                	mv	a0,a5
    800001d0:	70a2                	ld	ra,40(sp)
    800001d2:	7402                	ld	s0,32(sp)
    800001d4:	6145                	addi	sp,sp,48
    800001d6:	8082                	ret

00000000800001d8 <default_handler>:
    800001d8:	1101                	addi	sp,sp,-32
    800001da:	ec06                	sd	ra,24(sp)
    800001dc:	e822                	sd	s0,16(sp)
    800001de:	1000                	addi	s0,sp,32
    800001e0:	fea43423          	sd	a0,-24(s0)
    800001e4:	feb43023          	sd	a1,-32(s0)
    800001e8:	00005517          	auipc	a0,0x5
    800001ec:	c2050513          	addi	a0,a0,-992 # 80004e08 <__rodata_start+0x50>
    800001f0:	0de000ef          	jal	ra,800002ce <log_trace>
    800001f4:	a001                	j	800001f4 <default_handler+0x1c>

00000000800001f6 <handle_trap>:
    800001f6:	7179                	addi	sp,sp,-48
    800001f8:	f406                	sd	ra,40(sp)
    800001fa:	f022                	sd	s0,32(sp)
    800001fc:	1800                	addi	s0,sp,48
    800001fe:	fca43c23          	sd	a0,-40(s0)
    80000202:	fcb43823          	sd	a1,-48(s0)
    80000206:	fe042623          	sw	zero,-20(s0)
    8000020a:	fe042423          	sw	zero,-24(s0)
    8000020e:	00005517          	auipc	a0,0x5
    80000212:	c1a50513          	addi	a0,a0,-998 # 80004e28 <__rodata_start+0x70>
    80000216:	0b8000ef          	jal	ra,800002ce <log_trace>
    8000021a:	45a1                	li	a1,8
    8000021c:	00005517          	auipc	a0,0x5
    80000220:	c2450513          	addi	a0,a0,-988 # 80004e40 <__rodata_start+0x88>
    80000224:	118000ef          	jal	ra,8000033c <log_debug>
    80000228:	03f00793          	li	a5,63
    8000022c:	fef42423          	sw	a5,-24(s0)
    80000230:	fe842783          	lw	a5,-24(s0)
    80000234:	873e                	mv	a4,a5
    80000236:	4785                	li	a5,1
    80000238:	00e797bb          	sllw	a5,a5,a4
    8000023c:	2781                	sext.w	a5,a5
    8000023e:	873e                	mv	a4,a5
    80000240:	fd843783          	ld	a5,-40(s0)
    80000244:	8ff9                	and	a5,a5,a4
    80000246:	c3a9                	beqz	a5,80000288 <handle_trap+0x92>
    80000248:	fd843783          	ld	a5,-40(s0)
    8000024c:	2781                	sext.w	a5,a5
    8000024e:	853e                	mv	a0,a5
    80000250:	f2fff0ef          	jal	ra,8000017e <extract_ie_code>
    80000254:	87aa                	mv	a5,a0
    80000256:	fef42623          	sw	a5,-20(s0)
    8000025a:	fd043603          	ld	a2,-48(s0)
    8000025e:	fd843583          	ld	a1,-40(s0)
    80000262:	00005517          	auipc	a0,0x5
    80000266:	bf650513          	addi	a0,a0,-1034 # 80004e58 <__rodata_start+0xa0>
    8000026a:	088000ef          	jal	ra,800002f2 <log_info>
    8000026e:	2b818713          	addi	a4,gp,696 # 800069b0 <mcause_interrupt_table>
    80000272:	fec46783          	lwu	a5,-20(s0)
    80000276:	078e                	slli	a5,a5,0x3
    80000278:	97ba                	add	a5,a5,a4
    8000027a:	639c                	ld	a5,0(a5)
    8000027c:	fd043583          	ld	a1,-48(s0)
    80000280:	fd843503          	ld	a0,-40(s0)
    80000284:	9782                	jalr	a5
    80000286:	a03d                	j	800002b4 <handle_trap+0xbe>
    80000288:	fd043603          	ld	a2,-48(s0)
    8000028c:	fd843583          	ld	a1,-40(s0)
    80000290:	00005517          	auipc	a0,0x5
    80000294:	bf050513          	addi	a0,a0,-1040 # 80004e80 <__rodata_start+0xc8>
    80000298:	05a000ef          	jal	ra,800002f2 <log_info>
    8000029c:	23818713          	addi	a4,gp,568 # 80006930 <mcause_trap_table>
    800002a0:	fd843783          	ld	a5,-40(s0)
    800002a4:	078e                	slli	a5,a5,0x3
    800002a6:	97ba                	add	a5,a5,a4
    800002a8:	639c                	ld	a5,0(a5)
    800002aa:	fd043583          	ld	a1,-48(s0)
    800002ae:	fd843503          	ld	a0,-40(s0)
    800002b2:	9782                	jalr	a5
    800002b4:	00005517          	auipc	a0,0x5
    800002b8:	bf450513          	addi	a0,a0,-1036 # 80004ea8 <__rodata_start+0xf0>
    800002bc:	012000ef          	jal	ra,800002ce <log_trace>
    800002c0:	fd043783          	ld	a5,-48(s0)
    800002c4:	853e                	mv	a0,a5
    800002c6:	70a2                	ld	ra,40(sp)
    800002c8:	7402                	ld	s0,32(sp)
    800002ca:	6145                	addi	sp,sp,48
    800002cc:	8082                	ret

00000000800002ce <log_trace>:
    800002ce:	7159                	addi	sp,sp,-112
    800002d0:	f422                	sd	s0,40(sp)
    800002d2:	1800                	addi	s0,sp,48
    800002d4:	fca43c23          	sd	a0,-40(s0)
    800002d8:	e40c                	sd	a1,8(s0)
    800002da:	e810                	sd	a2,16(s0)
    800002dc:	ec14                	sd	a3,24(s0)
    800002de:	f018                	sd	a4,32(s0)
    800002e0:	f41c                	sd	a5,40(s0)
    800002e2:	03043823          	sd	a6,48(s0)
    800002e6:	03143c23          	sd	a7,56(s0)
    800002ea:	0001                	nop
    800002ec:	7422                	ld	s0,40(sp)
    800002ee:	6165                	addi	sp,sp,112
    800002f0:	8082                	ret

00000000800002f2 <log_info>:
    800002f2:	7159                	addi	sp,sp,-112
    800002f4:	f406                	sd	ra,40(sp)
    800002f6:	f022                	sd	s0,32(sp)
    800002f8:	1800                	addi	s0,sp,48
    800002fa:	fca43c23          	sd	a0,-40(s0)
    800002fe:	e40c                	sd	a1,8(s0)
    80000300:	e810                	sd	a2,16(s0)
    80000302:	ec14                	sd	a3,24(s0)
    80000304:	f018                	sd	a4,32(s0)
    80000306:	f41c                	sd	a5,40(s0)
    80000308:	03043823          	sd	a6,48(s0)
    8000030c:	03143c23          	sd	a7,56(s0)
    80000310:	04040793          	addi	a5,s0,64
    80000314:	fcf43823          	sd	a5,-48(s0)
    80000318:	fd043783          	ld	a5,-48(s0)
    8000031c:	fc878793          	addi	a5,a5,-56 # ffffffff7fffffc8 <__stack_pointer$+0xfffffffef80003c8>
    80000320:	fef43423          	sd	a5,-24(s0)
    80000324:	fe843783          	ld	a5,-24(s0)
    80000328:	85be                	mv	a1,a5
    8000032a:	fd843503          	ld	a0,-40(s0)
    8000032e:	1e4000ef          	jal	ra,80000512 <_printf_>
    80000332:	0001                	nop
    80000334:	70a2                	ld	ra,40(sp)
    80000336:	7402                	ld	s0,32(sp)
    80000338:	6165                	addi	sp,sp,112
    8000033a:	8082                	ret

000000008000033c <log_debug>:
    8000033c:	7159                	addi	sp,sp,-112
    8000033e:	f422                	sd	s0,40(sp)
    80000340:	1800                	addi	s0,sp,48
    80000342:	fca43c23          	sd	a0,-40(s0)
    80000346:	e40c                	sd	a1,8(s0)
    80000348:	e810                	sd	a2,16(s0)
    8000034a:	ec14                	sd	a3,24(s0)
    8000034c:	f018                	sd	a4,32(s0)
    8000034e:	f41c                	sd	a5,40(s0)
    80000350:	03043823          	sd	a6,48(s0)
    80000354:	03143c23          	sd	a7,56(s0)
    80000358:	0001                	nop
    8000035a:	7422                	ld	s0,40(sp)
    8000035c:	6165                	addi	sp,sp,112
    8000035e:	8082                	ret

0000000080000360 <log_warn>:
    80000360:	7159                	addi	sp,sp,-112
    80000362:	f406                	sd	ra,40(sp)
    80000364:	f022                	sd	s0,32(sp)
    80000366:	1800                	addi	s0,sp,48
    80000368:	fca43c23          	sd	a0,-40(s0)
    8000036c:	e40c                	sd	a1,8(s0)
    8000036e:	e810                	sd	a2,16(s0)
    80000370:	ec14                	sd	a3,24(s0)
    80000372:	f018                	sd	a4,32(s0)
    80000374:	f41c                	sd	a5,40(s0)
    80000376:	03043823          	sd	a6,48(s0)
    8000037a:	03143c23          	sd	a7,56(s0)
    8000037e:	04040793          	addi	a5,s0,64
    80000382:	fcf43823          	sd	a5,-48(s0)
    80000386:	fd043783          	ld	a5,-48(s0)
    8000038a:	fc878793          	addi	a5,a5,-56
    8000038e:	fef43423          	sd	a5,-24(s0)
    80000392:	fe843783          	ld	a5,-24(s0)
    80000396:	85be                	mv	a1,a5
    80000398:	fd843503          	ld	a0,-40(s0)
    8000039c:	176000ef          	jal	ra,80000512 <_printf_>
    800003a0:	0001                	nop
    800003a2:	70a2                	ld	ra,40(sp)
    800003a4:	7402                	ld	s0,32(sp)
    800003a6:	6165                	addi	sp,sp,112
    800003a8:	8082                	ret

00000000800003aa <log_error>:
    800003aa:	7159                	addi	sp,sp,-112
    800003ac:	f406                	sd	ra,40(sp)
    800003ae:	f022                	sd	s0,32(sp)
    800003b0:	1800                	addi	s0,sp,48
    800003b2:	fca43c23          	sd	a0,-40(s0)
    800003b6:	e40c                	sd	a1,8(s0)
    800003b8:	e810                	sd	a2,16(s0)
    800003ba:	ec14                	sd	a3,24(s0)
    800003bc:	f018                	sd	a4,32(s0)
    800003be:	f41c                	sd	a5,40(s0)
    800003c0:	03043823          	sd	a6,48(s0)
    800003c4:	03143c23          	sd	a7,56(s0)
    800003c8:	04040793          	addi	a5,s0,64
    800003cc:	fcf43823          	sd	a5,-48(s0)
    800003d0:	fd043783          	ld	a5,-48(s0)
    800003d4:	fc878793          	addi	a5,a5,-56
    800003d8:	fef43423          	sd	a5,-24(s0)
    800003dc:	fe843783          	ld	a5,-24(s0)
    800003e0:	85be                	mv	a1,a5
    800003e2:	fd843503          	ld	a0,-40(s0)
    800003e6:	12c000ef          	jal	ra,80000512 <_printf_>
    800003ea:	0001                	nop
    800003ec:	70a2                	ld	ra,40(sp)
    800003ee:	7402                	ld	s0,32(sp)
    800003f0:	6165                	addi	sp,sp,112
    800003f2:	8082                	ret

00000000800003f4 <log_fatal>:
    800003f4:	7159                	addi	sp,sp,-112
    800003f6:	f406                	sd	ra,40(sp)
    800003f8:	f022                	sd	s0,32(sp)
    800003fa:	1800                	addi	s0,sp,48
    800003fc:	fca43c23          	sd	a0,-40(s0)
    80000400:	e40c                	sd	a1,8(s0)
    80000402:	e810                	sd	a2,16(s0)
    80000404:	ec14                	sd	a3,24(s0)
    80000406:	f018                	sd	a4,32(s0)
    80000408:	f41c                	sd	a5,40(s0)
    8000040a:	03043823          	sd	a6,48(s0)
    8000040e:	03143c23          	sd	a7,56(s0)
    80000412:	04040793          	addi	a5,s0,64
    80000416:	fcf43823          	sd	a5,-48(s0)
    8000041a:	fd043783          	ld	a5,-48(s0)
    8000041e:	fc878793          	addi	a5,a5,-56
    80000422:	fef43423          	sd	a5,-24(s0)
    80000426:	fe843783          	ld	a5,-24(s0)
    8000042a:	85be                	mv	a1,a5
    8000042c:	fd843503          	ld	a0,-40(s0)
    80000430:	0e2000ef          	jal	ra,80000512 <_printf_>
    80000434:	00005517          	auipc	a0,0x5
    80000438:	a8c50513          	addi	a0,a0,-1396 # 80004ec0 <__rodata_start+0x108>
    8000043c:	eb7ff0ef          	jal	ra,800002f2 <log_info>
    80000440:	a001                	j	80000440 <log_fatal+0x4c>

0000000080000442 <itoa>:
    80000442:	7169                	addi	sp,sp,-304
    80000444:	f606                	sd	ra,296(sp)
    80000446:	f222                	sd	s0,288(sp)
    80000448:	1a00                	addi	s0,sp,304
    8000044a:	eca43c23          	sd	a0,-296(s0)
    8000044e:	87ae                	mv	a5,a1
    80000450:	ecf42a23          	sw	a5,-300(s0)
    80000454:	fe042623          	sw	zero,-20(s0)
    80000458:	fe042423          	sw	zero,-24(s0)
    8000045c:	ed446783          	lwu	a5,-300(s0)
    80000460:	ed843703          	ld	a4,-296(s0)
    80000464:	02f777b3          	remu	a5,a4,a5
    80000468:	0007871b          	sext.w	a4,a5
    8000046c:	fec42783          	lw	a5,-20(s0)
    80000470:	078a                	slli	a5,a5,0x2
    80000472:	17c1                	addi	a5,a5,-16
    80000474:	97a2                	add	a5,a5,s0
    80000476:	eee7ac23          	sw	a4,-264(a5)
    8000047a:	ed446783          	lwu	a5,-300(s0)
    8000047e:	ed843703          	ld	a4,-296(s0)
    80000482:	02f76063          	bltu	a4,a5,800004a2 <itoa+0x60>
    80000486:	ed446783          	lwu	a5,-300(s0)
    8000048a:	ed843703          	ld	a4,-296(s0)
    8000048e:	02f757b3          	divu	a5,a4,a5
    80000492:	ecf43c23          	sd	a5,-296(s0)
    80000496:	fec42783          	lw	a5,-20(s0)
    8000049a:	2785                	addiw	a5,a5,1
    8000049c:	fef42623          	sw	a5,-20(s0)
    800004a0:	bf75                	j	8000045c <itoa+0x1a>
    800004a2:	0001                	nop
    800004a4:	fec42783          	lw	a5,-20(s0)
    800004a8:	2785                	addiw	a5,a5,1
    800004aa:	fef42623          	sw	a5,-20(s0)
    800004ae:	a0a1                	j	800004f6 <itoa+0xb4>
    800004b0:	fec42783          	lw	a5,-20(s0)
    800004b4:	078a                	slli	a5,a5,0x2
    800004b6:	17c1                	addi	a5,a5,-16
    800004b8:	97a2                	add	a5,a5,s0
    800004ba:	ef87a783          	lw	a5,-264(a5)
    800004be:	873e                	mv	a4,a5
    800004c0:	47a5                	li	a5,9
    800004c2:	00e7f763          	bgeu	a5,a4,800004d0 <itoa+0x8e>
    800004c6:	05700793          	li	a5,87
    800004ca:	fef42423          	sw	a5,-24(s0)
    800004ce:	a029                	j	800004d8 <itoa+0x96>
    800004d0:	03000793          	li	a5,48
    800004d4:	fef42423          	sw	a5,-24(s0)
    800004d8:	fec42783          	lw	a5,-20(s0)
    800004dc:	078a                	slli	a5,a5,0x2
    800004de:	17c1                	addi	a5,a5,-16
    800004e0:	97a2                	add	a5,a5,s0
    800004e2:	ef87a783          	lw	a5,-264(a5)
    800004e6:	fe842703          	lw	a4,-24(s0)
    800004ea:	9fb9                	addw	a5,a5,a4
    800004ec:	2781                	sext.w	a5,a5
    800004ee:	2781                	sext.w	a5,a5
    800004f0:	853e                	mv	a0,a5
    800004f2:	494000ef          	jal	ra,80000986 <putchar>
    800004f6:	fec42783          	lw	a5,-20(s0)
    800004fa:	fff7871b          	addiw	a4,a5,-1
    800004fe:	fee42623          	sw	a4,-20(s0)
    80000502:	faf047e3          	bgtz	a5,800004b0 <itoa+0x6e>
    80000506:	0001                	nop
    80000508:	0001                	nop
    8000050a:	70b2                	ld	ra,296(sp)
    8000050c:	7412                	ld	s0,288(sp)
    8000050e:	6155                	addi	sp,sp,304
    80000510:	8082                	ret

0000000080000512 <_printf_>:
    80000512:	7119                	addi	sp,sp,-128
    80000514:	fc86                	sd	ra,120(sp)
    80000516:	f8a2                	sd	s0,112(sp)
    80000518:	f4a6                	sd	s1,104(sp)
    8000051a:	f0ca                	sd	s2,96(sp)
    8000051c:	0100                	addi	s0,sp,128
    8000051e:	f8a43423          	sd	a0,-120(s0)
    80000522:	f8b43023          	sd	a1,-128(s0)
    80000526:	00000793          	li	a5,0
    8000052a:	fcf42423          	sw	a5,-56(s0)
    8000052e:	f8043c23          	sd	zero,-104(s0)
    80000532:	fa043023          	sd	zero,-96(s0)
    80000536:	fa043423          	sd	zero,-88(s0)
    8000053a:	fa042823          	sw	zero,-80(s0)
    8000053e:	fa041a23          	sh	zero,-76(s0)
    80000542:	a819                	j	80000558 <_printf_+0x46>
    80000544:	36048963          	beqz	s1,800008b6 <_printf_+0x3a4>
    80000548:	8526                	mv	a0,s1
    8000054a:	43c000ef          	jal	ra,80000986 <putchar>
    8000054e:	f8843783          	ld	a5,-120(s0)
    80000552:	0785                	addi	a5,a5,1
    80000554:	f8f43423          	sd	a5,-120(s0)
    80000558:	f8843783          	ld	a5,-120(s0)
    8000055c:	0007c783          	lbu	a5,0(a5)
    80000560:	0007849b          	sext.w	s1,a5
    80000564:	8726                	mv	a4,s1
    80000566:	02500793          	li	a5,37
    8000056a:	fcf71de3          	bne	a4,a5,80000544 <_printf_+0x32>
    8000056e:	f8843783          	ld	a5,-120(s0)
    80000572:	0785                	addi	a5,a5,1
    80000574:	f8f43423          	sd	a5,-120(s0)
    80000578:	f8843783          	ld	a5,-120(s0)
    8000057c:	fcf43023          	sd	a5,-64(s0)
    80000580:	fc042a23          	sw	zero,-44(s0)
    80000584:	fc042623          	sw	zero,-52(s0)
    80000588:	f8843783          	ld	a5,-120(s0)
    8000058c:	00178713          	addi	a4,a5,1
    80000590:	f8e43423          	sd	a4,-120(s0)
    80000594:	0007c783          	lbu	a5,0(a5)
    80000598:	0007849b          	sext.w	s1,a5
    8000059c:	8726                	mv	a4,s1
    8000059e:	02500793          	li	a5,37
    800005a2:	2ef70363          	beq	a4,a5,80000888 <_printf_+0x376>
    800005a6:	8726                	mv	a4,s1
    800005a8:	02500793          	li	a5,37
    800005ac:	2ef74263          	blt	a4,a5,80000890 <_printf_+0x37e>
    800005b0:	8726                	mv	a4,s1
    800005b2:	07800793          	li	a5,120
    800005b6:	2ce7cd63          	blt	a5,a4,80000890 <_printf_+0x37e>
    800005ba:	8726                	mv	a4,s1
    800005bc:	06300793          	li	a5,99
    800005c0:	2cf74863          	blt	a4,a5,80000890 <_printf_+0x37e>
    800005c4:	f9d4869b          	addiw	a3,s1,-99
    800005c8:	0006871b          	sext.w	a4,a3
    800005cc:	47d5                	li	a5,21
    800005ce:	2ce7e163          	bltu	a5,a4,80000890 <_printf_+0x37e>
    800005d2:	02069793          	slli	a5,a3,0x20
    800005d6:	9381                	srli	a5,a5,0x20
    800005d8:	00279713          	slli	a4,a5,0x2
    800005dc:	00005797          	auipc	a5,0x5
    800005e0:	8fc78793          	addi	a5,a5,-1796 # 80004ed8 <__rodata_start+0x120>
    800005e4:	97ba                	add	a5,a5,a4
    800005e6:	439c                	lw	a5,0(a5)
    800005e8:	0007871b          	sext.w	a4,a5
    800005ec:	00005797          	auipc	a5,0x5
    800005f0:	8ec78793          	addi	a5,a5,-1812 # 80004ed8 <__rodata_start+0x120>
    800005f4:	97ba                	add	a5,a5,a4
    800005f6:	8782                	jr	a5
    800005f8:	fd442783          	lw	a5,-44(s0)
    800005fc:	2785                	addiw	a5,a5,1
    800005fe:	fcf42a23          	sw	a5,-44(s0)
    80000602:	4785                	li	a5,1
    80000604:	fcf42623          	sw	a5,-52(s0)
    80000608:	ac69                	j	800008a2 <_printf_+0x390>
    8000060a:	f8043783          	ld	a5,-128(s0)
    8000060e:	00878713          	addi	a4,a5,8
    80000612:	f8e43023          	sd	a4,-128(s0)
    80000616:	439c                	lw	a5,0(a5)
    80000618:	853e                	mv	a0,a5
    8000061a:	36c000ef          	jal	ra,80000986 <putchar>
    8000061e:	a451                	j	800008a2 <_printf_+0x390>
    80000620:	f8043783          	ld	a5,-128(s0)
    80000624:	00878713          	addi	a4,a5,8
    80000628:	f8e43023          	sd	a4,-128(s0)
    8000062c:	0007b903          	ld	s2,0(a5)
    80000630:	00091b63          	bnez	s2,80000646 <_printf_+0x134>
    80000634:	00005917          	auipc	s2,0x5
    80000638:	89c90913          	addi	s2,s2,-1892 # 80004ed0 <__rodata_start+0x118>
    8000063c:	a029                	j	80000646 <_printf_+0x134>
    8000063e:	8526                	mv	a0,s1
    80000640:	346000ef          	jal	ra,80000986 <putchar>
    80000644:	0905                	addi	s2,s2,1
    80000646:	00094783          	lbu	a5,0(s2)
    8000064a:	0007849b          	sext.w	s1,a5
    8000064e:	f8e5                	bnez	s1,8000063e <_printf_+0x12c>
    80000650:	ac89                	j	800008a2 <_printf_+0x390>
    80000652:	47a9                	li	a5,10
    80000654:	faf42e23          	sw	a5,-68(s0)
    80000658:	fd442783          	lw	a5,-44(s0)
    8000065c:	0007871b          	sext.w	a4,a5
    80000660:	4785                	li	a5,1
    80000662:	00e7dc63          	bge	a5,a4,8000067a <_printf_+0x168>
    80000666:	f8043783          	ld	a5,-128(s0)
    8000066a:	00878713          	addi	a4,a5,8
    8000066e:	f8e43023          	sd	a4,-128(s0)
    80000672:	639c                	ld	a5,0(a5)
    80000674:	fcf43c23          	sd	a5,-40(s0)
    80000678:	a81d                	j	800006ae <_printf_+0x19c>
    8000067a:	fd442783          	lw	a5,-44(s0)
    8000067e:	0007871b          	sext.w	a4,a5
    80000682:	4785                	li	a5,1
    80000684:	00f71c63          	bne	a4,a5,8000069c <_printf_+0x18a>
    80000688:	f8043783          	ld	a5,-128(s0)
    8000068c:	00878713          	addi	a4,a5,8
    80000690:	f8e43023          	sd	a4,-128(s0)
    80000694:	639c                	ld	a5,0(a5)
    80000696:	fcf43c23          	sd	a5,-40(s0)
    8000069a:	a811                	j	800006ae <_printf_+0x19c>
    8000069c:	f8043783          	ld	a5,-128(s0)
    800006a0:	00878713          	addi	a4,a5,8
    800006a4:	f8e43023          	sd	a4,-128(s0)
    800006a8:	439c                	lw	a5,0(a5)
    800006aa:	fcf43c23          	sd	a5,-40(s0)
    800006ae:	fd843783          	ld	a5,-40(s0)
    800006b2:	0007dc63          	bgez	a5,800006ca <_printf_+0x1b8>
    800006b6:	02d00513          	li	a0,45
    800006ba:	2cc000ef          	jal	ra,80000986 <putchar>
    800006be:	fd843783          	ld	a5,-40(s0)
    800006c2:	40f007b3          	neg	a5,a5
    800006c6:	fcf43c23          	sd	a5,-40(s0)
    800006ca:	fbc42783          	lw	a5,-68(s0)
    800006ce:	85be                	mv	a1,a5
    800006d0:	fd843503          	ld	a0,-40(s0)
    800006d4:	d6fff0ef          	jal	ra,80000442 <itoa>
    800006d8:	a2e9                	j	800008a2 <_printf_+0x390>
    800006da:	f8043783          	ld	a5,-128(s0)
    800006de:	00878713          	addi	a4,a5,8
    800006e2:	f8e43023          	sd	a4,-128(s0)
    800006e6:	639c                	ld	a5,0(a5)
    800006e8:	853e                	mv	a0,a5
    800006ea:	188040ef          	jal	ra,80004872 <__truncdfsf2>
    800006ee:	87aa                	mv	a5,a0
    800006f0:	fcf42423          	sw	a5,-56(s0)
    800006f4:	f9840793          	addi	a5,s0,-104
    800006f8:	4619                	li	a2,6
    800006fa:	85be                	mv	a1,a5
    800006fc:	fc842503          	lw	a0,-56(s0)
    80000700:	695000ef          	jal	ra,80001594 <ftoa>
    80000704:	fc042823          	sw	zero,-48(s0)
    80000708:	a03d                	j	80000736 <_printf_+0x224>
    8000070a:	fd042783          	lw	a5,-48(s0)
    8000070e:	1781                	addi	a5,a5,-32
    80000710:	97a2                	add	a5,a5,s0
    80000712:	fb87c783          	lbu	a5,-72(a5)
    80000716:	2781                	sext.w	a5,a5
    80000718:	853e                	mv	a0,a5
    8000071a:	26c000ef          	jal	ra,80000986 <putchar>
    8000071e:	fd042783          	lw	a5,-48(s0)
    80000722:	0007871b          	sext.w	a4,a5
    80000726:	47f5                	li	a5,29
    80000728:	00e7cf63          	blt	a5,a4,80000746 <_printf_+0x234>
    8000072c:	fd042783          	lw	a5,-48(s0)
    80000730:	2785                	addiw	a5,a5,1
    80000732:	fcf42823          	sw	a5,-48(s0)
    80000736:	fd042783          	lw	a5,-48(s0)
    8000073a:	1781                	addi	a5,a5,-32
    8000073c:	97a2                	add	a5,a5,s0
    8000073e:	fb87c783          	lbu	a5,-72(a5)
    80000742:	f7e1                	bnez	a5,8000070a <_printf_+0x1f8>
    80000744:	aab9                	j	800008a2 <_printf_+0x390>
    80000746:	0001                	nop
    80000748:	aaa9                	j	800008a2 <_printf_+0x390>
    8000074a:	47a9                	li	a5,10
    8000074c:	faf42e23          	sw	a5,-68(s0)
    80000750:	fd442783          	lw	a5,-44(s0)
    80000754:	0007871b          	sext.w	a4,a5
    80000758:	4785                	li	a5,1
    8000075a:	00e7dc63          	bge	a5,a4,80000772 <_printf_+0x260>
    8000075e:	f8043783          	ld	a5,-128(s0)
    80000762:	00878713          	addi	a4,a5,8
    80000766:	f8e43023          	sd	a4,-128(s0)
    8000076a:	639c                	ld	a5,0(a5)
    8000076c:	fcf43c23          	sd	a5,-40(s0)
    80000770:	a815                	j	800007a4 <_printf_+0x292>
    80000772:	fd442783          	lw	a5,-44(s0)
    80000776:	2781                	sext.w	a5,a5
    80000778:	cb99                	beqz	a5,8000078e <_printf_+0x27c>
    8000077a:	f8043783          	ld	a5,-128(s0)
    8000077e:	00878713          	addi	a4,a5,8
    80000782:	f8e43023          	sd	a4,-128(s0)
    80000786:	639c                	ld	a5,0(a5)
    80000788:	fcf43c23          	sd	a5,-40(s0)
    8000078c:	a821                	j	800007a4 <_printf_+0x292>
    8000078e:	f8043783          	ld	a5,-128(s0)
    80000792:	00878713          	addi	a4,a5,8
    80000796:	f8e43023          	sd	a4,-128(s0)
    8000079a:	439c                	lw	a5,0(a5)
    8000079c:	1782                	slli	a5,a5,0x20
    8000079e:	9381                	srli	a5,a5,0x20
    800007a0:	fcf43c23          	sd	a5,-40(s0)
    800007a4:	fbc42783          	lw	a5,-68(s0)
    800007a8:	85be                	mv	a1,a5
    800007aa:	fd843503          	ld	a0,-40(s0)
    800007ae:	c95ff0ef          	jal	ra,80000442 <itoa>
    800007b2:	a8c5                	j	800008a2 <_printf_+0x390>
    800007b4:	47a1                	li	a5,8
    800007b6:	faf42e23          	sw	a5,-68(s0)
    800007ba:	fd442783          	lw	a5,-44(s0)
    800007be:	0007871b          	sext.w	a4,a5
    800007c2:	4785                	li	a5,1
    800007c4:	00e7dc63          	bge	a5,a4,800007dc <_printf_+0x2ca>
    800007c8:	f8043783          	ld	a5,-128(s0)
    800007cc:	00878713          	addi	a4,a5,8
    800007d0:	f8e43023          	sd	a4,-128(s0)
    800007d4:	639c                	ld	a5,0(a5)
    800007d6:	fcf43c23          	sd	a5,-40(s0)
    800007da:	a815                	j	8000080e <_printf_+0x2fc>
    800007dc:	fd442783          	lw	a5,-44(s0)
    800007e0:	2781                	sext.w	a5,a5
    800007e2:	cb99                	beqz	a5,800007f8 <_printf_+0x2e6>
    800007e4:	f8043783          	ld	a5,-128(s0)
    800007e8:	00878713          	addi	a4,a5,8
    800007ec:	f8e43023          	sd	a4,-128(s0)
    800007f0:	639c                	ld	a5,0(a5)
    800007f2:	fcf43c23          	sd	a5,-40(s0)
    800007f6:	a821                	j	8000080e <_printf_+0x2fc>
    800007f8:	f8043783          	ld	a5,-128(s0)
    800007fc:	00878713          	addi	a4,a5,8
    80000800:	f8e43023          	sd	a4,-128(s0)
    80000804:	439c                	lw	a5,0(a5)
    80000806:	1782                	slli	a5,a5,0x20
    80000808:	9381                	srli	a5,a5,0x20
    8000080a:	fcf43c23          	sd	a5,-40(s0)
    8000080e:	fbc42783          	lw	a5,-68(s0)
    80000812:	85be                	mv	a1,a5
    80000814:	fd843503          	ld	a0,-40(s0)
    80000818:	c2bff0ef          	jal	ra,80000442 <itoa>
    8000081c:	a059                	j	800008a2 <_printf_+0x390>
    8000081e:	47c1                	li	a5,16
    80000820:	faf42e23          	sw	a5,-68(s0)
    80000824:	fd442783          	lw	a5,-44(s0)
    80000828:	0007871b          	sext.w	a4,a5
    8000082c:	4785                	li	a5,1
    8000082e:	00e7dc63          	bge	a5,a4,80000846 <_printf_+0x334>
    80000832:	f8043783          	ld	a5,-128(s0)
    80000836:	00878713          	addi	a4,a5,8
    8000083a:	f8e43023          	sd	a4,-128(s0)
    8000083e:	639c                	ld	a5,0(a5)
    80000840:	fcf43c23          	sd	a5,-40(s0)
    80000844:	a815                	j	80000878 <_printf_+0x366>
    80000846:	fd442783          	lw	a5,-44(s0)
    8000084a:	2781                	sext.w	a5,a5
    8000084c:	cb99                	beqz	a5,80000862 <_printf_+0x350>
    8000084e:	f8043783          	ld	a5,-128(s0)
    80000852:	00878713          	addi	a4,a5,8
    80000856:	f8e43023          	sd	a4,-128(s0)
    8000085a:	639c                	ld	a5,0(a5)
    8000085c:	fcf43c23          	sd	a5,-40(s0)
    80000860:	a821                	j	80000878 <_printf_+0x366>
    80000862:	f8043783          	ld	a5,-128(s0)
    80000866:	00878713          	addi	a4,a5,8
    8000086a:	f8e43023          	sd	a4,-128(s0)
    8000086e:	439c                	lw	a5,0(a5)
    80000870:	1782                	slli	a5,a5,0x20
    80000872:	9381                	srli	a5,a5,0x20
    80000874:	fcf43c23          	sd	a5,-40(s0)
    80000878:	fbc42783          	lw	a5,-68(s0)
    8000087c:	85be                	mv	a1,a5
    8000087e:	fd843503          	ld	a0,-40(s0)
    80000882:	bc1ff0ef          	jal	ra,80000442 <itoa>
    80000886:	a831                	j	800008a2 <_printf_+0x390>
    80000888:	8526                	mv	a0,s1
    8000088a:	0fc000ef          	jal	ra,80000986 <putchar>
    8000088e:	a811                	j	800008a2 <_printf_+0x390>
    80000890:	02500513          	li	a0,37
    80000894:	0f2000ef          	jal	ra,80000986 <putchar>
    80000898:	fc043783          	ld	a5,-64(s0)
    8000089c:	f8f43423          	sd	a5,-120(s0)
    800008a0:	0001                	nop
    800008a2:	fcc42783          	lw	a5,-52(s0)
    800008a6:	2781                	sext.w	a5,a5
    800008a8:	c789                	beqz	a5,800008b2 <_printf_+0x3a0>
    800008aa:	fc042623          	sw	zero,-52(s0)
    800008ae:	0001                	nop
    800008b0:	b9e1                	j	80000588 <_printf_+0x76>
    800008b2:	0001                	nop
    800008b4:	b155                	j	80000558 <_printf_+0x46>
    800008b6:	0001                	nop
    800008b8:	70e6                	ld	ra,120(sp)
    800008ba:	7446                	ld	s0,112(sp)
    800008bc:	74a6                	ld	s1,104(sp)
    800008be:	7906                	ld	s2,96(sp)
    800008c0:	6109                	addi	sp,sp,128
    800008c2:	8082                	ret

00000000800008c4 <printf>:
    800008c4:	7159                	addi	sp,sp,-112
    800008c6:	f406                	sd	ra,40(sp)
    800008c8:	f022                	sd	s0,32(sp)
    800008ca:	1800                	addi	s0,sp,48
    800008cc:	fca43c23          	sd	a0,-40(s0)
    800008d0:	e40c                	sd	a1,8(s0)
    800008d2:	e810                	sd	a2,16(s0)
    800008d4:	ec14                	sd	a3,24(s0)
    800008d6:	f018                	sd	a4,32(s0)
    800008d8:	f41c                	sd	a5,40(s0)
    800008da:	03043823          	sd	a6,48(s0)
    800008de:	03143c23          	sd	a7,56(s0)
    800008e2:	04040793          	addi	a5,s0,64
    800008e6:	fcf43823          	sd	a5,-48(s0)
    800008ea:	fd043783          	ld	a5,-48(s0)
    800008ee:	fc878793          	addi	a5,a5,-56
    800008f2:	fef43423          	sd	a5,-24(s0)
    800008f6:	fe843783          	ld	a5,-24(s0)
    800008fa:	85be                	mv	a1,a5
    800008fc:	fd843503          	ld	a0,-40(s0)
    80000900:	c13ff0ef          	jal	ra,80000512 <_printf_>
    80000904:	4781                	li	a5,0
    80000906:	853e                	mv	a0,a5
    80000908:	70a2                	ld	ra,40(sp)
    8000090a:	7402                	ld	s0,32(sp)
    8000090c:	6165                	addi	sp,sp,112
    8000090e:	8082                	ret

0000000080000910 <uart_init>:
    80000910:	1101                	addi	sp,sp,-32
    80000912:	ec22                	sd	s0,24(sp)
    80000914:	1000                	addi	s0,sp,32
    80000916:	fe042623          	sw	zero,-20(s0)
    8000091a:	a035                	j	80000946 <uart_init+0x36>
    8000091c:	fec42783          	lw	a5,-20(s0)
    80000920:	1137879b          	addiw	a5,a5,275
    80000924:	2781                	sext.w	a5,a5
    80000926:	0087979b          	slliw	a5,a5,0x8
    8000092a:	2781                	sext.w	a5,a5
    8000092c:	86be                	mv	a3,a5
    8000092e:	85018713          	addi	a4,gp,-1968 # 80005f48 <uart_instance>
    80000932:	fec42783          	lw	a5,-20(s0)
    80000936:	078e                	slli	a5,a5,0x3
    80000938:	97ba                	add	a5,a5,a4
    8000093a:	e394                	sd	a3,0(a5)
    8000093c:	fec42783          	lw	a5,-20(s0)
    80000940:	2785                	addiw	a5,a5,1
    80000942:	fef42623          	sw	a5,-20(s0)
    80000946:	fec42783          	lw	a5,-20(s0)
    8000094a:	2781                	sext.w	a5,a5
    8000094c:	fcf058e3          	blez	a5,8000091c <uart_init+0xc>
    80000950:	0001                	nop
    80000952:	0001                	nop
    80000954:	6462                	ld	s0,24(sp)
    80000956:	6105                	addi	sp,sp,32
    80000958:	8082                	ret

000000008000095a <getchar>:
    8000095a:	1141                	addi	sp,sp,-16
    8000095c:	e422                	sd	s0,8(sp)
    8000095e:	0800                	addi	s0,sp,16
    80000960:	0001                	nop
    80000962:	85018793          	addi	a5,gp,-1968 # 80005f48 <uart_instance>
    80000966:	639c                	ld	a5,0(a5)
    80000968:	00c7c783          	lbu	a5,12(a5)
    8000096c:	2781                	sext.w	a5,a5
    8000096e:	8b91                	andi	a5,a5,4
    80000970:	2781                	sext.w	a5,a5
    80000972:	dbe5                	beqz	a5,80000962 <getchar+0x8>
    80000974:	85018793          	addi	a5,gp,-1968 # 80005f48 <uart_instance>
    80000978:	639c                	ld	a5,0(a5)
    8000097a:	479c                	lw	a5,8(a5)
    8000097c:	2781                	sext.w	a5,a5
    8000097e:	853e                	mv	a0,a5
    80000980:	6422                	ld	s0,8(sp)
    80000982:	0141                	addi	sp,sp,16
    80000984:	8082                	ret

0000000080000986 <putchar>:
    80000986:	1101                	addi	sp,sp,-32
    80000988:	ec22                	sd	s0,24(sp)
    8000098a:	1000                	addi	s0,sp,32
    8000098c:	87aa                	mv	a5,a0
    8000098e:	fef42623          	sw	a5,-20(s0)
    80000992:	0001                	nop
    80000994:	85018793          	addi	a5,gp,-1968 # 80005f48 <uart_instance>
    80000998:	639c                	ld	a5,0(a5)
    8000099a:	00c7c783          	lbu	a5,12(a5)
    8000099e:	2781                	sext.w	a5,a5
    800009a0:	8b89                	andi	a5,a5,2
    800009a2:	2781                	sext.w	a5,a5
    800009a4:	fbe5                	bnez	a5,80000994 <putchar+0xe>
    800009a6:	85018793          	addi	a5,gp,-1968 # 80005f48 <uart_instance>
    800009aa:	639c                	ld	a5,0(a5)
    800009ac:	fec42703          	lw	a4,-20(s0)
    800009b0:	c3d8                	sw	a4,4(a5)
    800009b2:	4781                	li	a5,0
    800009b4:	853e                	mv	a0,a5
    800009b6:	6462                	ld	s0,24(sp)
    800009b8:	6105                	addi	sp,sp,32
    800009ba:	8082                	ret

00000000800009bc <set_baud_rate>:
    800009bc:	7179                	addi	sp,sp,-48
    800009be:	f422                	sd	s0,40(sp)
    800009c0:	1800                	addi	s0,sp,48
    800009c2:	fca43c23          	sd	a0,-40(s0)
    800009c6:	87ae                	mv	a5,a1
    800009c8:	fcf42a23          	sw	a5,-44(s0)
    800009cc:	fe042623          	sw	zero,-20(s0)
    800009d0:	fd442783          	lw	a5,-44(s0)
    800009d4:	0047979b          	slliw	a5,a5,0x4
    800009d8:	2781                	sext.w	a5,a5
    800009da:	01313737          	lui	a4,0x1313
    800009de:	d007071b          	addiw	a4,a4,-768 # 1312d00 <_tbss_end+0x1312d00>
    800009e2:	02f757bb          	divuw	a5,a4,a5
    800009e6:	fef42623          	sw	a5,-20(s0)
    800009ea:	fec42783          	lw	a5,-20(s0)
    800009ee:	03079713          	slli	a4,a5,0x30
    800009f2:	9341                	srli	a4,a4,0x30
    800009f4:	fd843783          	ld	a5,-40(s0)
    800009f8:	00e79023          	sh	a4,0(a5)
    800009fc:	0001                	nop
    800009fe:	7422                	ld	s0,40(sp)
    80000a00:	6145                	addi	sp,sp,48
    80000a02:	8082                	ret

0000000080000a04 <enable_uart_interrupts>:
    80000a04:	1101                	addi	sp,sp,-32
    80000a06:	ec22                	sd	s0,24(sp)
    80000a08:	1000                	addi	s0,sp,32
    80000a0a:	fea43423          	sd	a0,-24(s0)
    80000a0e:	87ae                	mv	a5,a1
    80000a10:	fef403a3          	sb	a5,-25(s0)
    80000a14:	fe843783          	ld	a5,-24(s0)
    80000a18:	fe744703          	lbu	a4,-25(s0)
    80000a1c:	00e78c23          	sb	a4,24(a5)
    80000a20:	0001                	nop
    80000a22:	6462                	ld	s0,24(sp)
    80000a24:	6105                	addi	sp,sp,32
    80000a26:	8082                	ret

0000000080000a28 <set_uart_rx_threshold>:
    80000a28:	1101                	addi	sp,sp,-32
    80000a2a:	ec22                	sd	s0,24(sp)
    80000a2c:	1000                	addi	s0,sp,32
    80000a2e:	fea43423          	sd	a0,-24(s0)
    80000a32:	87ae                	mv	a5,a1
    80000a34:	fef403a3          	sb	a5,-25(s0)
    80000a38:	fe843783          	ld	a5,-24(s0)
    80000a3c:	fe744703          	lbu	a4,-25(s0)
    80000a40:	02e78023          	sb	a4,32(a5)
    80000a44:	0001                	nop
    80000a46:	6462                	ld	s0,24(sp)
    80000a48:	6105                	addi	sp,sp,32
    80000a4a:	8082                	ret

0000000080000a4c <write_uart_character>:
    80000a4c:	1101                	addi	sp,sp,-32
    80000a4e:	ec22                	sd	s0,24(sp)
    80000a50:	1000                	addi	s0,sp,32
    80000a52:	fea43423          	sd	a0,-24(s0)
    80000a56:	87ae                	mv	a5,a1
    80000a58:	fef403a3          	sb	a5,-25(s0)
    80000a5c:	0001                	nop
    80000a5e:	fe843783          	ld	a5,-24(s0)
    80000a62:	00c7c783          	lbu	a5,12(a5)
    80000a66:	2781                	sext.w	a5,a5
    80000a68:	8b89                	andi	a5,a5,2
    80000a6a:	2781                	sext.w	a5,a5
    80000a6c:	fbed                	bnez	a5,80000a5e <write_uart_character+0x12>
    80000a6e:	fe744783          	lbu	a5,-25(s0)
    80000a72:	0007871b          	sext.w	a4,a5
    80000a76:	fe843783          	ld	a5,-24(s0)
    80000a7a:	c3d8                	sw	a4,4(a5)
    80000a7c:	4781                	li	a5,0
    80000a7e:	853e                	mv	a0,a5
    80000a80:	6462                	ld	s0,24(sp)
    80000a82:	6105                	addi	sp,sp,32
    80000a84:	8082                	ret

0000000080000a86 <write_uart_string>:
    80000a86:	7179                	addi	sp,sp,-48
    80000a88:	f406                	sd	ra,40(sp)
    80000a8a:	f022                	sd	s0,32(sp)
    80000a8c:	1800                	addi	s0,sp,48
    80000a8e:	fca43c23          	sd	a0,-40(s0)
    80000a92:	fcb43823          	sd	a1,-48(s0)
    80000a96:	fe042623          	sw	zero,-20(s0)
    80000a9a:	fec42783          	lw	a5,-20(s0)
    80000a9e:	0017871b          	addiw	a4,a5,1
    80000aa2:	fee42623          	sw	a4,-20(s0)
    80000aa6:	1782                	slli	a5,a5,0x20
    80000aa8:	9381                	srli	a5,a5,0x20
    80000aaa:	fd043703          	ld	a4,-48(s0)
    80000aae:	97ba                	add	a5,a5,a4
    80000ab0:	0007c783          	lbu	a5,0(a5)
    80000ab4:	fef405a3          	sb	a5,-21(s0)
    80000ab8:	feb44783          	lbu	a5,-21(s0)
    80000abc:	85be                	mv	a1,a5
    80000abe:	fd843503          	ld	a0,-40(s0)
    80000ac2:	f8bff0ef          	jal	ra,80000a4c <write_uart_character>
    80000ac6:	feb44783          	lbu	a5,-21(s0)
    80000aca:	0ff7f793          	zext.b	a5,a5
    80000ace:	f7f1                	bnez	a5,80000a9a <write_uart_string+0x14>
    80000ad0:	4781                	li	a5,0
    80000ad2:	853e                	mv	a0,a5
    80000ad4:	70a2                	ld	ra,40(sp)
    80000ad6:	7402                	ld	s0,32(sp)
    80000ad8:	6145                	addi	sp,sp,48
    80000ada:	8082                	ret

0000000080000adc <read_uart_character>:
    80000adc:	7179                	addi	sp,sp,-48
    80000ade:	f422                	sd	s0,40(sp)
    80000ae0:	1800                	addi	s0,sp,48
    80000ae2:	fca43c23          	sd	a0,-40(s0)
    80000ae6:	fcb43823          	sd	a1,-48(s0)
    80000aea:	fe0407a3          	sb	zero,-17(s0)
    80000aee:	0001                	nop
    80000af0:	fd843783          	ld	a5,-40(s0)
    80000af4:	00c7c783          	lbu	a5,12(a5)
    80000af8:	2781                	sext.w	a5,a5
    80000afa:	8b91                	andi	a5,a5,4
    80000afc:	2781                	sext.w	a5,a5
    80000afe:	dbed                	beqz	a5,80000af0 <read_uart_character+0x14>
    80000b00:	fd843783          	ld	a5,-40(s0)
    80000b04:	479c                	lw	a5,8(a5)
    80000b06:	fef407a3          	sb	a5,-17(s0)
    80000b0a:	fd043783          	ld	a5,-48(s0)
    80000b0e:	fef44703          	lbu	a4,-17(s0)
    80000b12:	00e78023          	sb	a4,0(a5)
    80000b16:	4785                	li	a5,1
    80000b18:	853e                	mv	a0,a5
    80000b1a:	7422                	ld	s0,40(sp)
    80000b1c:	6145                	addi	sp,sp,48
    80000b1e:	8082                	ret

0000000080000b20 <read_uart_string>:
    80000b20:	7179                	addi	sp,sp,-48
    80000b22:	f406                	sd	ra,40(sp)
    80000b24:	f022                	sd	s0,32(sp)
    80000b26:	1800                	addi	s0,sp,48
    80000b28:	fca43c23          	sd	a0,-40(s0)
    80000b2c:	fcb43823          	sd	a1,-48(s0)
    80000b30:	fe042623          	sw	zero,-20(s0)
    80000b34:	fe0405a3          	sb	zero,-21(s0)
    80000b38:	0001                	nop
    80000b3a:	fd843783          	ld	a5,-40(s0)
    80000b3e:	00c7c783          	lbu	a5,12(a5)
    80000b42:	2781                	sext.w	a5,a5
    80000b44:	8b91                	andi	a5,a5,4
    80000b46:	2781                	sext.w	a5,a5
    80000b48:	dbed                	beqz	a5,80000b3a <read_uart_string+0x1a>
    80000b4a:	fd843783          	ld	a5,-40(s0)
    80000b4e:	479c                	lw	a5,8(a5)
    80000b50:	fef405a3          	sb	a5,-21(s0)
    80000b54:	fec42783          	lw	a5,-20(s0)
    80000b58:	0017871b          	addiw	a4,a5,1
    80000b5c:	fee42623          	sw	a4,-20(s0)
    80000b60:	1782                	slli	a5,a5,0x20
    80000b62:	9381                	srli	a5,a5,0x20
    80000b64:	fd043703          	ld	a4,-48(s0)
    80000b68:	97ba                	add	a5,a5,a4
    80000b6a:	feb44703          	lbu	a4,-21(s0)
    80000b6e:	00e78023          	sb	a4,0(a5)
    80000b72:	feb44783          	lbu	a5,-21(s0)
    80000b76:	2781                	sext.w	a5,a5
    80000b78:	853e                	mv	a0,a5
    80000b7a:	e0dff0ef          	jal	ra,80000986 <putchar>
    80000b7e:	feb44783          	lbu	a5,-21(s0)
    80000b82:	0ff7f713          	zext.b	a4,a5
    80000b86:	47b5                	li	a5,13
    80000b88:	faf718e3          	bne	a4,a5,80000b38 <read_uart_string+0x18>
    80000b8c:	fec42783          	lw	a5,-20(s0)
    80000b90:	0017871b          	addiw	a4,a5,1
    80000b94:	fee42623          	sw	a4,-20(s0)
    80000b98:	1782                	slli	a5,a5,0x20
    80000b9a:	9381                	srli	a5,a5,0x20
    80000b9c:	fd043703          	ld	a4,-48(s0)
    80000ba0:	97ba                	add	a5,a5,a4
    80000ba2:	4729                	li	a4,10
    80000ba4:	00e78023          	sb	a4,0(a5)
    80000ba8:	fec42783          	lw	a5,-20(s0)
    80000bac:	0017871b          	addiw	a4,a5,1
    80000bb0:	fee42623          	sw	a4,-20(s0)
    80000bb4:	1782                	slli	a5,a5,0x20
    80000bb6:	9381                	srli	a5,a5,0x20
    80000bb8:	fd043703          	ld	a4,-48(s0)
    80000bbc:	97ba                	add	a5,a5,a4
    80000bbe:	00078023          	sb	zero,0(a5)
    80000bc2:	fec42783          	lw	a5,-20(s0)
    80000bc6:	0ff7f793          	zext.b	a5,a5
    80000bca:	853e                	mv	a0,a5
    80000bcc:	70a2                	ld	ra,40(sp)
    80000bce:	7402                	ld	s0,32(sp)
    80000bd0:	6145                	addi	sp,sp,48
    80000bd2:	8082                	ret

0000000080000bd4 <flush_uart>:
    80000bd4:	7179                	addi	sp,sp,-48
    80000bd6:	f422                	sd	s0,40(sp)
    80000bd8:	1800                	addi	s0,sp,48
    80000bda:	fca43c23          	sd	a0,-40(s0)
    80000bde:	a031                	j	80000bea <flush_uart+0x16>
    80000be0:	fd843783          	ld	a5,-40(s0)
    80000be4:	479c                	lw	a5,8(a5)
    80000be6:	fef407a3          	sb	a5,-17(s0)
    80000bea:	fd843783          	ld	a5,-40(s0)
    80000bee:	00c7c783          	lbu	a5,12(a5)
    80000bf2:	2781                	sext.w	a5,a5
    80000bf4:	8b91                	andi	a5,a5,4
    80000bf6:	2781                	sext.w	a5,a5
    80000bf8:	f7e5                	bnez	a5,80000be0 <flush_uart+0xc>
    80000bfa:	0001                	nop
    80000bfc:	0001                	nop
    80000bfe:	7422                	ld	s0,40(sp)
    80000c00:	6145                	addi	sp,sp,48
    80000c02:	8082                	ret

0000000080000c04 <uart0_isr>:
    80000c04:	1101                	addi	sp,sp,-32
    80000c06:	ec06                	sd	ra,24(sp)
    80000c08:	e822                	sd	s0,16(sp)
    80000c0a:	1000                	addi	s0,sp,32
    80000c0c:	fe042623          	sw	zero,-20(s0)
    80000c10:	85018793          	addi	a5,gp,-1968 # 80005f48 <uart_instance>
    80000c14:	639c                	ld	a5,0(a5)
    80000c16:	00c7c783          	lbu	a5,12(a5)
    80000c1a:	2781                	sext.w	a5,a5
    80000c1c:	1007f793          	andi	a5,a5,256
    80000c20:	2781                	sext.w	a5,a5
    80000c22:	c7ad                	beqz	a5,80000c8c <uart0_isr+0x88>
    80000c24:	a891                	j	80000c78 <uart0_isr+0x74>
    80000c26:	85018793          	addi	a5,gp,-1968 # 80005f48 <uart_instance>
    80000c2a:	639c                	ld	a5,0(a5)
    80000c2c:	479c                	lw	a5,8(a5)
    80000c2e:	fef42623          	sw	a5,-20(s0)
    80000c32:	86018793          	addi	a5,gp,-1952 # 80005f58 <uart0_rcv_isr_count>
    80000c36:	439c                	lw	a5,0(a5)
    80000c38:	2781                	sext.w	a5,a5
    80000c3a:	0017871b          	addiw	a4,a5,1
    80000c3e:	0007069b          	sext.w	a3,a4
    80000c42:	86018713          	addi	a4,gp,-1952 # 80005f58 <uart0_rcv_isr_count>
    80000c46:	c314                	sw	a3,0(a4)
    80000c48:	fec42703          	lw	a4,-20(s0)
    80000c4c:	0ff77713          	zext.b	a4,a4
    80000c50:	00006697          	auipc	a3,0x6
    80000c54:	de068693          	addi	a3,a3,-544 # 80006a30 <u0_rcv_char>
    80000c58:	1782                	slli	a5,a5,0x20
    80000c5a:	9381                	srli	a5,a5,0x20
    80000c5c:	97b6                	add	a5,a5,a3
    80000c5e:	00e78023          	sb	a4,0(a5)
    80000c62:	85018793          	addi	a5,gp,-1968 # 80005f48 <uart_instance>
    80000c66:	639c                	ld	a5,0(a5)
    80000c68:	fec42703          	lw	a4,-20(s0)
    80000c6c:	0ff77713          	zext.b	a4,a4
    80000c70:	85ba                	mv	a1,a4
    80000c72:	853e                	mv	a0,a5
    80000c74:	dd9ff0ef          	jal	ra,80000a4c <write_uart_character>
    80000c78:	85018793          	addi	a5,gp,-1968 # 80005f48 <uart_instance>
    80000c7c:	639c                	ld	a5,0(a5)
    80000c7e:	00c7c783          	lbu	a5,12(a5)
    80000c82:	2781                	sext.w	a5,a5
    80000c84:	8b91                	andi	a5,a5,4
    80000c86:	2781                	sext.w	a5,a5
    80000c88:	ffd9                	bnez	a5,80000c26 <uart0_isr+0x22>
    80000c8a:	a225                	j	80000db2 <uart0_isr+0x1ae>
    80000c8c:	85018793          	addi	a5,gp,-1968 # 80005f48 <uart_instance>
    80000c90:	639c                	ld	a5,0(a5)
    80000c92:	00c7c783          	lbu	a5,12(a5)
    80000c96:	2781                	sext.w	a5,a5
    80000c98:	8ba1                	andi	a5,a5,8
    80000c9a:	2781                	sext.w	a5,a5
    80000c9c:	cbcd                	beqz	a5,80000d4e <uart0_isr+0x14a>
    80000c9e:	45c1                	li	a1,16
    80000ca0:	020d0537          	lui	a0,0x20d0
    80000ca4:	331000ef          	jal	ra,800017d4 <write_word>
    80000ca8:	020d07b7          	lui	a5,0x20d0
    80000cac:	00878513          	addi	a0,a5,8 # 20d0008 <_tbss_end+0x20d0008>
    80000cb0:	2ed000ef          	jal	ra,8000179c <read_word>
    80000cb4:	87aa                	mv	a5,a0
    80000cb6:	0107e793          	ori	a5,a5,16
    80000cba:	85be                	mv	a1,a5
    80000cbc:	020d07b7          	lui	a5,0x20d0
    80000cc0:	00878513          	addi	a0,a5,8 # 20d0008 <_tbss_end+0x20d0008>
    80000cc4:	311000ef          	jal	ra,800017d4 <write_word>
    80000cc8:	a891                	j	80000d1c <uart0_isr+0x118>
    80000cca:	85018793          	addi	a5,gp,-1968 # 80005f48 <uart_instance>
    80000cce:	639c                	ld	a5,0(a5)
    80000cd0:	479c                	lw	a5,8(a5)
    80000cd2:	fef42623          	sw	a5,-20(s0)
    80000cd6:	86018793          	addi	a5,gp,-1952 # 80005f58 <uart0_rcv_isr_count>
    80000cda:	439c                	lw	a5,0(a5)
    80000cdc:	2781                	sext.w	a5,a5
    80000cde:	0017871b          	addiw	a4,a5,1
    80000ce2:	0007069b          	sext.w	a3,a4
    80000ce6:	86018713          	addi	a4,gp,-1952 # 80005f58 <uart0_rcv_isr_count>
    80000cea:	c314                	sw	a3,0(a4)
    80000cec:	fec42703          	lw	a4,-20(s0)
    80000cf0:	0ff77713          	zext.b	a4,a4
    80000cf4:	00006697          	auipc	a3,0x6
    80000cf8:	d3c68693          	addi	a3,a3,-708 # 80006a30 <u0_rcv_char>
    80000cfc:	1782                	slli	a5,a5,0x20
    80000cfe:	9381                	srli	a5,a5,0x20
    80000d00:	97b6                	add	a5,a5,a3
    80000d02:	00e78023          	sb	a4,0(a5)
    80000d06:	85018793          	addi	a5,gp,-1968 # 80005f48 <uart_instance>
    80000d0a:	639c                	ld	a5,0(a5)
    80000d0c:	fec42703          	lw	a4,-20(s0)
    80000d10:	0ff77713          	zext.b	a4,a4
    80000d14:	85ba                	mv	a1,a4
    80000d16:	853e                	mv	a0,a5
    80000d18:	d35ff0ef          	jal	ra,80000a4c <write_uart_character>
    80000d1c:	85018793          	addi	a5,gp,-1968 # 80005f48 <uart_instance>
    80000d20:	639c                	ld	a5,0(a5)
    80000d22:	00c7c783          	lbu	a5,12(a5)
    80000d26:	2781                	sext.w	a5,a5
    80000d28:	8b91                	andi	a5,a5,4
    80000d2a:	2781                	sext.w	a5,a5
    80000d2c:	ffd9                	bnez	a5,80000cca <uart0_isr+0xc6>
    80000d2e:	020d07b7          	lui	a5,0x20d0
    80000d32:	00878513          	addi	a0,a5,8 # 20d0008 <_tbss_end+0x20d0008>
    80000d36:	267000ef          	jal	ra,8000179c <read_word>
    80000d3a:	87aa                	mv	a5,a0
    80000d3c:	9bbd                	andi	a5,a5,-17
    80000d3e:	85be                	mv	a1,a5
    80000d40:	020d07b7          	lui	a5,0x20d0
    80000d44:	00878513          	addi	a0,a5,8 # 20d0008 <_tbss_end+0x20d0008>
    80000d48:	28d000ef          	jal	ra,800017d4 <write_word>
    80000d4c:	a09d                	j	80000db2 <uart0_isr+0x1ae>
    80000d4e:	85018793          	addi	a5,gp,-1968 # 80005f48 <uart_instance>
    80000d52:	639c                	ld	a5,0(a5)
    80000d54:	00c7c783          	lbu	a5,12(a5)
    80000d58:	2781                	sext.w	a5,a5
    80000d5a:	8b91                	andi	a5,a5,4
    80000d5c:	2781                	sext.w	a5,a5
    80000d5e:	cbb1                	beqz	a5,80000db2 <uart0_isr+0x1ae>
    80000d60:	85018793          	addi	a5,gp,-1968 # 80005f48 <uart_instance>
    80000d64:	639c                	ld	a5,0(a5)
    80000d66:	479c                	lw	a5,8(a5)
    80000d68:	fef42623          	sw	a5,-20(s0)
    80000d6c:	86018793          	addi	a5,gp,-1952 # 80005f58 <uart0_rcv_isr_count>
    80000d70:	439c                	lw	a5,0(a5)
    80000d72:	2781                	sext.w	a5,a5
    80000d74:	0017871b          	addiw	a4,a5,1
    80000d78:	0007069b          	sext.w	a3,a4
    80000d7c:	86018713          	addi	a4,gp,-1952 # 80005f58 <uart0_rcv_isr_count>
    80000d80:	c314                	sw	a3,0(a4)
    80000d82:	fec42703          	lw	a4,-20(s0)
    80000d86:	0ff77713          	zext.b	a4,a4
    80000d8a:	00006697          	auipc	a3,0x6
    80000d8e:	ca668693          	addi	a3,a3,-858 # 80006a30 <u0_rcv_char>
    80000d92:	1782                	slli	a5,a5,0x20
    80000d94:	9381                	srli	a5,a5,0x20
    80000d96:	97b6                	add	a5,a5,a3
    80000d98:	00e78023          	sb	a4,0(a5)
    80000d9c:	85018793          	addi	a5,gp,-1968 # 80005f48 <uart_instance>
    80000da0:	639c                	ld	a5,0(a5)
    80000da2:	fec42703          	lw	a4,-20(s0)
    80000da6:	0ff77713          	zext.b	a4,a4
    80000daa:	85ba                	mv	a1,a4
    80000dac:	853e                	mv	a0,a5
    80000dae:	c9fff0ef          	jal	ra,80000a4c <write_uart_character>
    80000db2:	4781                	li	a5,0
    80000db4:	853e                	mv	a0,a5
    80000db6:	60e2                	ld	ra,24(sp)
    80000db8:	6442                	ld	s0,16(sp)
    80000dba:	6105                	addi	sp,sp,32
    80000dbc:	8082                	ret

0000000080000dbe <uart1_isr>:
    80000dbe:	1101                	addi	sp,sp,-32
    80000dc0:	ec06                	sd	ra,24(sp)
    80000dc2:	e822                	sd	s0,16(sp)
    80000dc4:	1000                	addi	s0,sp,32
    80000dc6:	fe042623          	sw	zero,-20(s0)
    80000dca:	85018793          	addi	a5,gp,-1968 # 80005f48 <uart_instance>
    80000dce:	679c                	ld	a5,8(a5)
    80000dd0:	00c7c783          	lbu	a5,12(a5)
    80000dd4:	2781                	sext.w	a5,a5
    80000dd6:	1007f793          	andi	a5,a5,256
    80000dda:	2781                	sext.w	a5,a5
    80000ddc:	c7ad                	beqz	a5,80000e46 <uart1_isr+0x88>
    80000dde:	a891                	j	80000e32 <uart1_isr+0x74>
    80000de0:	85018793          	addi	a5,gp,-1968 # 80005f48 <uart_instance>
    80000de4:	679c                	ld	a5,8(a5)
    80000de6:	479c                	lw	a5,8(a5)
    80000de8:	fef42623          	sw	a5,-20(s0)
    80000dec:	86818793          	addi	a5,gp,-1944 # 80005f60 <uart1_rcv_isr_count>
    80000df0:	439c                	lw	a5,0(a5)
    80000df2:	2781                	sext.w	a5,a5
    80000df4:	0017871b          	addiw	a4,a5,1
    80000df8:	0007069b          	sext.w	a3,a4
    80000dfc:	86818713          	addi	a4,gp,-1944 # 80005f60 <uart1_rcv_isr_count>
    80000e00:	c314                	sw	a3,0(a4)
    80000e02:	fec42703          	lw	a4,-20(s0)
    80000e06:	0ff77713          	zext.b	a4,a4
    80000e0a:	00008697          	auipc	a3,0x8
    80000e0e:	33668693          	addi	a3,a3,822 # 80009140 <u1_rcv_char>
    80000e12:	1782                	slli	a5,a5,0x20
    80000e14:	9381                	srli	a5,a5,0x20
    80000e16:	97b6                	add	a5,a5,a3
    80000e18:	00e78023          	sb	a4,0(a5)
    80000e1c:	85018793          	addi	a5,gp,-1968 # 80005f48 <uart_instance>
    80000e20:	679c                	ld	a5,8(a5)
    80000e22:	fec42703          	lw	a4,-20(s0)
    80000e26:	0ff77713          	zext.b	a4,a4
    80000e2a:	85ba                	mv	a1,a4
    80000e2c:	853e                	mv	a0,a5
    80000e2e:	c1fff0ef          	jal	ra,80000a4c <write_uart_character>
    80000e32:	85018793          	addi	a5,gp,-1968 # 80005f48 <uart_instance>
    80000e36:	679c                	ld	a5,8(a5)
    80000e38:	00c7c783          	lbu	a5,12(a5)
    80000e3c:	2781                	sext.w	a5,a5
    80000e3e:	8b91                	andi	a5,a5,4
    80000e40:	2781                	sext.w	a5,a5
    80000e42:	ffd9                	bnez	a5,80000de0 <uart1_isr+0x22>
    80000e44:	a225                	j	80000f6c <uart1_isr+0x1ae>
    80000e46:	85018793          	addi	a5,gp,-1968 # 80005f48 <uart_instance>
    80000e4a:	679c                	ld	a5,8(a5)
    80000e4c:	00c7c783          	lbu	a5,12(a5)
    80000e50:	2781                	sext.w	a5,a5
    80000e52:	8ba1                	andi	a5,a5,8
    80000e54:	2781                	sext.w	a5,a5
    80000e56:	cbcd                	beqz	a5,80000f08 <uart1_isr+0x14a>
    80000e58:	45c1                	li	a1,16
    80000e5a:	020d0537          	lui	a0,0x20d0
    80000e5e:	177000ef          	jal	ra,800017d4 <write_word>
    80000e62:	020d07b7          	lui	a5,0x20d0
    80000e66:	00878513          	addi	a0,a5,8 # 20d0008 <_tbss_end+0x20d0008>
    80000e6a:	133000ef          	jal	ra,8000179c <read_word>
    80000e6e:	87aa                	mv	a5,a0
    80000e70:	0107e793          	ori	a5,a5,16
    80000e74:	85be                	mv	a1,a5
    80000e76:	020d07b7          	lui	a5,0x20d0
    80000e7a:	00878513          	addi	a0,a5,8 # 20d0008 <_tbss_end+0x20d0008>
    80000e7e:	157000ef          	jal	ra,800017d4 <write_word>
    80000e82:	a891                	j	80000ed6 <uart1_isr+0x118>
    80000e84:	85018793          	addi	a5,gp,-1968 # 80005f48 <uart_instance>
    80000e88:	679c                	ld	a5,8(a5)
    80000e8a:	479c                	lw	a5,8(a5)
    80000e8c:	fef42623          	sw	a5,-20(s0)
    80000e90:	86818793          	addi	a5,gp,-1944 # 80005f60 <uart1_rcv_isr_count>
    80000e94:	439c                	lw	a5,0(a5)
    80000e96:	2781                	sext.w	a5,a5
    80000e98:	0017871b          	addiw	a4,a5,1
    80000e9c:	0007069b          	sext.w	a3,a4
    80000ea0:	86818713          	addi	a4,gp,-1944 # 80005f60 <uart1_rcv_isr_count>
    80000ea4:	c314                	sw	a3,0(a4)
    80000ea6:	fec42703          	lw	a4,-20(s0)
    80000eaa:	0ff77713          	zext.b	a4,a4
    80000eae:	00008697          	auipc	a3,0x8
    80000eb2:	29268693          	addi	a3,a3,658 # 80009140 <u1_rcv_char>
    80000eb6:	1782                	slli	a5,a5,0x20
    80000eb8:	9381                	srli	a5,a5,0x20
    80000eba:	97b6                	add	a5,a5,a3
    80000ebc:	00e78023          	sb	a4,0(a5)
    80000ec0:	85018793          	addi	a5,gp,-1968 # 80005f48 <uart_instance>
    80000ec4:	679c                	ld	a5,8(a5)
    80000ec6:	fec42703          	lw	a4,-20(s0)
    80000eca:	0ff77713          	zext.b	a4,a4
    80000ece:	85ba                	mv	a1,a4
    80000ed0:	853e                	mv	a0,a5
    80000ed2:	b7bff0ef          	jal	ra,80000a4c <write_uart_character>
    80000ed6:	85018793          	addi	a5,gp,-1968 # 80005f48 <uart_instance>
    80000eda:	679c                	ld	a5,8(a5)
    80000edc:	00c7c783          	lbu	a5,12(a5)
    80000ee0:	2781                	sext.w	a5,a5
    80000ee2:	8b91                	andi	a5,a5,4
    80000ee4:	2781                	sext.w	a5,a5
    80000ee6:	ffd9                	bnez	a5,80000e84 <uart1_isr+0xc6>
    80000ee8:	020d07b7          	lui	a5,0x20d0
    80000eec:	00878513          	addi	a0,a5,8 # 20d0008 <_tbss_end+0x20d0008>
    80000ef0:	0ad000ef          	jal	ra,8000179c <read_word>
    80000ef4:	87aa                	mv	a5,a0
    80000ef6:	9bbd                	andi	a5,a5,-17
    80000ef8:	85be                	mv	a1,a5
    80000efa:	020d07b7          	lui	a5,0x20d0
    80000efe:	00878513          	addi	a0,a5,8 # 20d0008 <_tbss_end+0x20d0008>
    80000f02:	0d3000ef          	jal	ra,800017d4 <write_word>
    80000f06:	a09d                	j	80000f6c <uart1_isr+0x1ae>
    80000f08:	85018793          	addi	a5,gp,-1968 # 80005f48 <uart_instance>
    80000f0c:	679c                	ld	a5,8(a5)
    80000f0e:	00c7c783          	lbu	a5,12(a5)
    80000f12:	2781                	sext.w	a5,a5
    80000f14:	8b91                	andi	a5,a5,4
    80000f16:	2781                	sext.w	a5,a5
    80000f18:	cbb1                	beqz	a5,80000f6c <uart1_isr+0x1ae>
    80000f1a:	85018793          	addi	a5,gp,-1968 # 80005f48 <uart_instance>
    80000f1e:	679c                	ld	a5,8(a5)
    80000f20:	479c                	lw	a5,8(a5)
    80000f22:	fef42623          	sw	a5,-20(s0)
    80000f26:	86818793          	addi	a5,gp,-1944 # 80005f60 <uart1_rcv_isr_count>
    80000f2a:	439c                	lw	a5,0(a5)
    80000f2c:	2781                	sext.w	a5,a5
    80000f2e:	0017871b          	addiw	a4,a5,1
    80000f32:	0007069b          	sext.w	a3,a4
    80000f36:	86818713          	addi	a4,gp,-1944 # 80005f60 <uart1_rcv_isr_count>
    80000f3a:	c314                	sw	a3,0(a4)
    80000f3c:	fec42703          	lw	a4,-20(s0)
    80000f40:	0ff77713          	zext.b	a4,a4
    80000f44:	00008697          	auipc	a3,0x8
    80000f48:	1fc68693          	addi	a3,a3,508 # 80009140 <u1_rcv_char>
    80000f4c:	1782                	slli	a5,a5,0x20
    80000f4e:	9381                	srli	a5,a5,0x20
    80000f50:	97b6                	add	a5,a5,a3
    80000f52:	00e78023          	sb	a4,0(a5)
    80000f56:	85018793          	addi	a5,gp,-1968 # 80005f48 <uart_instance>
    80000f5a:	679c                	ld	a5,8(a5)
    80000f5c:	fec42703          	lw	a4,-20(s0)
    80000f60:	0ff77713          	zext.b	a4,a4
    80000f64:	85ba                	mv	a1,a4
    80000f66:	853e                	mv	a0,a5
    80000f68:	ae5ff0ef          	jal	ra,80000a4c <write_uart_character>
    80000f6c:	4781                	li	a5,0
    80000f6e:	853e                	mv	a0,a5
    80000f70:	60e2                	ld	ra,24(sp)
    80000f72:	6442                	ld	s0,16(sp)
    80000f74:	6105                	addi	sp,sp,32
    80000f76:	8082                	ret

0000000080000f78 <uart2_isr>:
    80000f78:	1101                	addi	sp,sp,-32
    80000f7a:	ec06                	sd	ra,24(sp)
    80000f7c:	e822                	sd	s0,16(sp)
    80000f7e:	1000                	addi	s0,sp,32
    80000f80:	fe042623          	sw	zero,-20(s0)
    80000f84:	85018793          	addi	a5,gp,-1968 # 80005f48 <uart_instance>
    80000f88:	6b9c                	ld	a5,16(a5)
    80000f8a:	00c7c783          	lbu	a5,12(a5)
    80000f8e:	2781                	sext.w	a5,a5
    80000f90:	1007f793          	andi	a5,a5,256
    80000f94:	2781                	sext.w	a5,a5
    80000f96:	c7ad                	beqz	a5,80001000 <uart2_isr+0x88>
    80000f98:	a891                	j	80000fec <uart2_isr+0x74>
    80000f9a:	85018793          	addi	a5,gp,-1968 # 80005f48 <uart_instance>
    80000f9e:	6b9c                	ld	a5,16(a5)
    80000fa0:	479c                	lw	a5,8(a5)
    80000fa2:	fef42623          	sw	a5,-20(s0)
    80000fa6:	87018793          	addi	a5,gp,-1936 # 80005f68 <uart2_rcv_isr_count>
    80000faa:	439c                	lw	a5,0(a5)
    80000fac:	2781                	sext.w	a5,a5
    80000fae:	0017871b          	addiw	a4,a5,1
    80000fb2:	0007069b          	sext.w	a3,a4
    80000fb6:	87018713          	addi	a4,gp,-1936 # 80005f68 <uart2_rcv_isr_count>
    80000fba:	c314                	sw	a3,0(a4)
    80000fbc:	fec42703          	lw	a4,-20(s0)
    80000fc0:	0ff77713          	zext.b	a4,a4
    80000fc4:	0000b697          	auipc	a3,0xb
    80000fc8:	88c68693          	addi	a3,a3,-1908 # 8000b850 <u2_rcv_char>
    80000fcc:	1782                	slli	a5,a5,0x20
    80000fce:	9381                	srli	a5,a5,0x20
    80000fd0:	97b6                	add	a5,a5,a3
    80000fd2:	00e78023          	sb	a4,0(a5)
    80000fd6:	85018793          	addi	a5,gp,-1968 # 80005f48 <uart_instance>
    80000fda:	6b9c                	ld	a5,16(a5)
    80000fdc:	fec42703          	lw	a4,-20(s0)
    80000fe0:	0ff77713          	zext.b	a4,a4
    80000fe4:	85ba                	mv	a1,a4
    80000fe6:	853e                	mv	a0,a5
    80000fe8:	a65ff0ef          	jal	ra,80000a4c <write_uart_character>
    80000fec:	85018793          	addi	a5,gp,-1968 # 80005f48 <uart_instance>
    80000ff0:	6b9c                	ld	a5,16(a5)
    80000ff2:	00c7c783          	lbu	a5,12(a5)
    80000ff6:	2781                	sext.w	a5,a5
    80000ff8:	8b91                	andi	a5,a5,4
    80000ffa:	2781                	sext.w	a5,a5
    80000ffc:	ffd9                	bnez	a5,80000f9a <uart2_isr+0x22>
    80000ffe:	a225                	j	80001126 <uart2_isr+0x1ae>
    80001000:	85018793          	addi	a5,gp,-1968 # 80005f48 <uart_instance>
    80001004:	6b9c                	ld	a5,16(a5)
    80001006:	00c7c783          	lbu	a5,12(a5)
    8000100a:	2781                	sext.w	a5,a5
    8000100c:	8ba1                	andi	a5,a5,8
    8000100e:	2781                	sext.w	a5,a5
    80001010:	cbcd                	beqz	a5,800010c2 <uart2_isr+0x14a>
    80001012:	45c1                	li	a1,16
    80001014:	020d0537          	lui	a0,0x20d0
    80001018:	7bc000ef          	jal	ra,800017d4 <write_word>
    8000101c:	020d07b7          	lui	a5,0x20d0
    80001020:	00878513          	addi	a0,a5,8 # 20d0008 <_tbss_end+0x20d0008>
    80001024:	778000ef          	jal	ra,8000179c <read_word>
    80001028:	87aa                	mv	a5,a0
    8000102a:	0107e793          	ori	a5,a5,16
    8000102e:	85be                	mv	a1,a5
    80001030:	020d07b7          	lui	a5,0x20d0
    80001034:	00878513          	addi	a0,a5,8 # 20d0008 <_tbss_end+0x20d0008>
    80001038:	79c000ef          	jal	ra,800017d4 <write_word>
    8000103c:	a891                	j	80001090 <uart2_isr+0x118>
    8000103e:	85018793          	addi	a5,gp,-1968 # 80005f48 <uart_instance>
    80001042:	6b9c                	ld	a5,16(a5)
    80001044:	479c                	lw	a5,8(a5)
    80001046:	fef42623          	sw	a5,-20(s0)
    8000104a:	87018793          	addi	a5,gp,-1936 # 80005f68 <uart2_rcv_isr_count>
    8000104e:	439c                	lw	a5,0(a5)
    80001050:	2781                	sext.w	a5,a5
    80001052:	0017871b          	addiw	a4,a5,1
    80001056:	0007069b          	sext.w	a3,a4
    8000105a:	87018713          	addi	a4,gp,-1936 # 80005f68 <uart2_rcv_isr_count>
    8000105e:	c314                	sw	a3,0(a4)
    80001060:	fec42703          	lw	a4,-20(s0)
    80001064:	0ff77713          	zext.b	a4,a4
    80001068:	0000a697          	auipc	a3,0xa
    8000106c:	7e868693          	addi	a3,a3,2024 # 8000b850 <u2_rcv_char>
    80001070:	1782                	slli	a5,a5,0x20
    80001072:	9381                	srli	a5,a5,0x20
    80001074:	97b6                	add	a5,a5,a3
    80001076:	00e78023          	sb	a4,0(a5)
    8000107a:	85018793          	addi	a5,gp,-1968 # 80005f48 <uart_instance>
    8000107e:	6b9c                	ld	a5,16(a5)
    80001080:	fec42703          	lw	a4,-20(s0)
    80001084:	0ff77713          	zext.b	a4,a4
    80001088:	85ba                	mv	a1,a4
    8000108a:	853e                	mv	a0,a5
    8000108c:	9c1ff0ef          	jal	ra,80000a4c <write_uart_character>
    80001090:	85018793          	addi	a5,gp,-1968 # 80005f48 <uart_instance>
    80001094:	6b9c                	ld	a5,16(a5)
    80001096:	00c7c783          	lbu	a5,12(a5)
    8000109a:	2781                	sext.w	a5,a5
    8000109c:	8b91                	andi	a5,a5,4
    8000109e:	2781                	sext.w	a5,a5
    800010a0:	ffd9                	bnez	a5,8000103e <uart2_isr+0xc6>
    800010a2:	020d07b7          	lui	a5,0x20d0
    800010a6:	00878513          	addi	a0,a5,8 # 20d0008 <_tbss_end+0x20d0008>
    800010aa:	6f2000ef          	jal	ra,8000179c <read_word>
    800010ae:	87aa                	mv	a5,a0
    800010b0:	9bbd                	andi	a5,a5,-17
    800010b2:	85be                	mv	a1,a5
    800010b4:	020d07b7          	lui	a5,0x20d0
    800010b8:	00878513          	addi	a0,a5,8 # 20d0008 <_tbss_end+0x20d0008>
    800010bc:	718000ef          	jal	ra,800017d4 <write_word>
    800010c0:	a09d                	j	80001126 <uart2_isr+0x1ae>
    800010c2:	85018793          	addi	a5,gp,-1968 # 80005f48 <uart_instance>
    800010c6:	6b9c                	ld	a5,16(a5)
    800010c8:	00c7c783          	lbu	a5,12(a5)
    800010cc:	2781                	sext.w	a5,a5
    800010ce:	8b91                	andi	a5,a5,4
    800010d0:	2781                	sext.w	a5,a5
    800010d2:	cbb1                	beqz	a5,80001126 <uart2_isr+0x1ae>
    800010d4:	85018793          	addi	a5,gp,-1968 # 80005f48 <uart_instance>
    800010d8:	6b9c                	ld	a5,16(a5)
    800010da:	479c                	lw	a5,8(a5)
    800010dc:	fef42623          	sw	a5,-20(s0)
    800010e0:	87018793          	addi	a5,gp,-1936 # 80005f68 <uart2_rcv_isr_count>
    800010e4:	439c                	lw	a5,0(a5)
    800010e6:	2781                	sext.w	a5,a5
    800010e8:	0017871b          	addiw	a4,a5,1
    800010ec:	0007069b          	sext.w	a3,a4
    800010f0:	87018713          	addi	a4,gp,-1936 # 80005f68 <uart2_rcv_isr_count>
    800010f4:	c314                	sw	a3,0(a4)
    800010f6:	fec42703          	lw	a4,-20(s0)
    800010fa:	0ff77713          	zext.b	a4,a4
    800010fe:	0000a697          	auipc	a3,0xa
    80001102:	75268693          	addi	a3,a3,1874 # 8000b850 <u2_rcv_char>
    80001106:	1782                	slli	a5,a5,0x20
    80001108:	9381                	srli	a5,a5,0x20
    8000110a:	97b6                	add	a5,a5,a3
    8000110c:	00e78023          	sb	a4,0(a5)
    80001110:	85018793          	addi	a5,gp,-1968 # 80005f48 <uart_instance>
    80001114:	6b9c                	ld	a5,16(a5)
    80001116:	fec42703          	lw	a4,-20(s0)
    8000111a:	0ff77713          	zext.b	a4,a4
    8000111e:	85ba                	mv	a1,a4
    80001120:	853e                	mv	a0,a5
    80001122:	92bff0ef          	jal	ra,80000a4c <write_uart_character>
    80001126:	4781                	li	a5,0
    80001128:	853e                	mv	a0,a5
    8000112a:	60e2                	ld	ra,24(sp)
    8000112c:	6442                	ld	s0,16(sp)
    8000112e:	6105                	addi	sp,sp,32
    80001130:	8082                	ret

0000000080001132 <section_init>:
    80001132:	1141                	addi	sp,sp,-16
    80001134:	e422                	sd	s0,8(sp)
    80001136:	0800                	addi	s0,sp,16
    80001138:	0001                	nop
    8000113a:	6422                	ld	s0,8(sp)
    8000113c:	0141                	addi	sp,sp,16
    8000113e:	8082                	ret

0000000080001140 <trap_init>:
    80001140:	1141                	addi	sp,sp,-16
    80001142:	e406                	sd	ra,8(sp)
    80001144:	e022                	sd	s0,0(sp)
    80001146:	0800                	addi	s0,sp,16
    80001148:	00004517          	auipc	a0,0x4
    8000114c:	de850513          	addi	a0,a0,-536 # 80004f30 <__rodata_start+0x178>
    80001150:	97eff0ef          	jal	ra,800002ce <log_trace>
    80001154:	2b818793          	addi	a5,gp,696 # 800069b0 <mcause_interrupt_table>
    80001158:	fffff717          	auipc	a4,0xfffff
    8000115c:	08070713          	addi	a4,a4,128 # 800001d8 <default_handler>
    80001160:	e398                	sd	a4,0(a5)
    80001162:	2b818793          	addi	a5,gp,696 # 800069b0 <mcause_interrupt_table>
    80001166:	fffff717          	auipc	a4,0xfffff
    8000116a:	07270713          	addi	a4,a4,114 # 800001d8 <default_handler>
    8000116e:	e798                	sd	a4,8(a5)
    80001170:	2b818793          	addi	a5,gp,696 # 800069b0 <mcause_interrupt_table>
    80001174:	fffff717          	auipc	a4,0xfffff
    80001178:	06470713          	addi	a4,a4,100 # 800001d8 <default_handler>
    8000117c:	eb98                	sd	a4,16(a5)
    8000117e:	2b818793          	addi	a5,gp,696 # 800069b0 <mcause_interrupt_table>
    80001182:	fffff717          	auipc	a4,0xfffff
    80001186:	05670713          	addi	a4,a4,86 # 800001d8 <default_handler>
    8000118a:	ef98                	sd	a4,24(a5)
    8000118c:	2b818793          	addi	a5,gp,696 # 800069b0 <mcause_interrupt_table>
    80001190:	fffff717          	auipc	a4,0xfffff
    80001194:	04870713          	addi	a4,a4,72 # 800001d8 <default_handler>
    80001198:	f398                	sd	a4,32(a5)
    8000119a:	2b818793          	addi	a5,gp,696 # 800069b0 <mcause_interrupt_table>
    8000119e:	fffff717          	auipc	a4,0xfffff
    800011a2:	03a70713          	addi	a4,a4,58 # 800001d8 <default_handler>
    800011a6:	f798                	sd	a4,40(a5)
    800011a8:	2b818793          	addi	a5,gp,696 # 800069b0 <mcause_interrupt_table>
    800011ac:	fffff717          	auipc	a4,0xfffff
    800011b0:	02c70713          	addi	a4,a4,44 # 800001d8 <default_handler>
    800011b4:	fb98                	sd	a4,48(a5)
    800011b6:	2b818793          	addi	a5,gp,696 # 800069b0 <mcause_interrupt_table>
    800011ba:	00000717          	auipc	a4,0x0
    800011be:	72c70713          	addi	a4,a4,1836 # 800018e6 <mach_clint_handler>
    800011c2:	ff98                	sd	a4,56(a5)
    800011c4:	2b818793          	addi	a5,gp,696 # 800069b0 <mcause_interrupt_table>
    800011c8:	fffff717          	auipc	a4,0xfffff
    800011cc:	01070713          	addi	a4,a4,16 # 800001d8 <default_handler>
    800011d0:	e3b8                	sd	a4,64(a5)
    800011d2:	2b818793          	addi	a5,gp,696 # 800069b0 <mcause_interrupt_table>
    800011d6:	fffff717          	auipc	a4,0xfffff
    800011da:	00270713          	addi	a4,a4,2 # 800001d8 <default_handler>
    800011de:	e7b8                	sd	a4,72(a5)
    800011e0:	2b818793          	addi	a5,gp,696 # 800069b0 <mcause_interrupt_table>
    800011e4:	fffff717          	auipc	a4,0xfffff
    800011e8:	ff470713          	addi	a4,a4,-12 # 800001d8 <default_handler>
    800011ec:	ebb8                	sd	a4,80(a5)
    800011ee:	2b818793          	addi	a5,gp,696 # 800069b0 <mcause_interrupt_table>
    800011f2:	00001717          	auipc	a4,0x1
    800011f6:	89670713          	addi	a4,a4,-1898 # 80001a88 <mach_plic_handler>
    800011fa:	efb8                	sd	a4,88(a5)
    800011fc:	2b818793          	addi	a5,gp,696 # 800069b0 <mcause_interrupt_table>
    80001200:	fffff717          	auipc	a4,0xfffff
    80001204:	fd870713          	addi	a4,a4,-40 # 800001d8 <default_handler>
    80001208:	f3b8                	sd	a4,96(a5)
    8000120a:	2b818793          	addi	a5,gp,696 # 800069b0 <mcause_interrupt_table>
    8000120e:	fffff717          	auipc	a4,0xfffff
    80001212:	fca70713          	addi	a4,a4,-54 # 800001d8 <default_handler>
    80001216:	f7b8                	sd	a4,104(a5)
    80001218:	2b818793          	addi	a5,gp,696 # 800069b0 <mcause_interrupt_table>
    8000121c:	fffff717          	auipc	a4,0xfffff
    80001220:	fbc70713          	addi	a4,a4,-68 # 800001d8 <default_handler>
    80001224:	fbb8                	sd	a4,112(a5)
    80001226:	2b818793          	addi	a5,gp,696 # 800069b0 <mcause_interrupt_table>
    8000122a:	fffff717          	auipc	a4,0xfffff
    8000122e:	fae70713          	addi	a4,a4,-82 # 800001d8 <default_handler>
    80001232:	ffb8                	sd	a4,120(a5)
    80001234:	23818793          	addi	a5,gp,568 # 80006930 <mcause_trap_table>
    80001238:	fffff717          	auipc	a4,0xfffff
    8000123c:	fa070713          	addi	a4,a4,-96 # 800001d8 <default_handler>
    80001240:	e398                	sd	a4,0(a5)
    80001242:	23818793          	addi	a5,gp,568 # 80006930 <mcause_trap_table>
    80001246:	fffff717          	auipc	a4,0xfffff
    8000124a:	f9270713          	addi	a4,a4,-110 # 800001d8 <default_handler>
    8000124e:	e798                	sd	a4,8(a5)
    80001250:	23818793          	addi	a5,gp,568 # 80006930 <mcause_trap_table>
    80001254:	fffff717          	auipc	a4,0xfffff
    80001258:	f8470713          	addi	a4,a4,-124 # 800001d8 <default_handler>
    8000125c:	eb98                	sd	a4,16(a5)
    8000125e:	23818793          	addi	a5,gp,568 # 80006930 <mcause_trap_table>
    80001262:	fffff717          	auipc	a4,0xfffff
    80001266:	f7670713          	addi	a4,a4,-138 # 800001d8 <default_handler>
    8000126a:	ef98                	sd	a4,24(a5)
    8000126c:	23818793          	addi	a5,gp,568 # 80006930 <mcause_trap_table>
    80001270:	fffff717          	auipc	a4,0xfffff
    80001274:	f6870713          	addi	a4,a4,-152 # 800001d8 <default_handler>
    80001278:	f398                	sd	a4,32(a5)
    8000127a:	23818793          	addi	a5,gp,568 # 80006930 <mcause_trap_table>
    8000127e:	fffff717          	auipc	a4,0xfffff
    80001282:	f5a70713          	addi	a4,a4,-166 # 800001d8 <default_handler>
    80001286:	f798                	sd	a4,40(a5)
    80001288:	23818793          	addi	a5,gp,568 # 80006930 <mcause_trap_table>
    8000128c:	fffff717          	auipc	a4,0xfffff
    80001290:	f4c70713          	addi	a4,a4,-180 # 800001d8 <default_handler>
    80001294:	fb98                	sd	a4,48(a5)
    80001296:	23818793          	addi	a5,gp,568 # 80006930 <mcause_trap_table>
    8000129a:	fffff717          	auipc	a4,0xfffff
    8000129e:	f3e70713          	addi	a4,a4,-194 # 800001d8 <default_handler>
    800012a2:	ff98                	sd	a4,56(a5)
    800012a4:	23818793          	addi	a5,gp,568 # 80006930 <mcause_trap_table>
    800012a8:	fffff717          	auipc	a4,0xfffff
    800012ac:	f3070713          	addi	a4,a4,-208 # 800001d8 <default_handler>
    800012b0:	e3b8                	sd	a4,64(a5)
    800012b2:	23818793          	addi	a5,gp,568 # 80006930 <mcause_trap_table>
    800012b6:	fffff717          	auipc	a4,0xfffff
    800012ba:	f2270713          	addi	a4,a4,-222 # 800001d8 <default_handler>
    800012be:	e7b8                	sd	a4,72(a5)
    800012c0:	23818793          	addi	a5,gp,568 # 80006930 <mcause_trap_table>
    800012c4:	fffff717          	auipc	a4,0xfffff
    800012c8:	f1470713          	addi	a4,a4,-236 # 800001d8 <default_handler>
    800012cc:	ebb8                	sd	a4,80(a5)
    800012ce:	23818793          	addi	a5,gp,568 # 80006930 <mcause_trap_table>
    800012d2:	fffff717          	auipc	a4,0xfffff
    800012d6:	f0670713          	addi	a4,a4,-250 # 800001d8 <default_handler>
    800012da:	efb8                	sd	a4,88(a5)
    800012dc:	23818793          	addi	a5,gp,568 # 80006930 <mcause_trap_table>
    800012e0:	fffff717          	auipc	a4,0xfffff
    800012e4:	ef870713          	addi	a4,a4,-264 # 800001d8 <default_handler>
    800012e8:	f3b8                	sd	a4,96(a5)
    800012ea:	23818793          	addi	a5,gp,568 # 80006930 <mcause_trap_table>
    800012ee:	fffff717          	auipc	a4,0xfffff
    800012f2:	eea70713          	addi	a4,a4,-278 # 800001d8 <default_handler>
    800012f6:	f7b8                	sd	a4,104(a5)
    800012f8:	23818793          	addi	a5,gp,568 # 80006930 <mcause_trap_table>
    800012fc:	fffff717          	auipc	a4,0xfffff
    80001300:	edc70713          	addi	a4,a4,-292 # 800001d8 <default_handler>
    80001304:	fbb8                	sd	a4,112(a5)
    80001306:	23818793          	addi	a5,gp,568 # 80006930 <mcause_trap_table>
    8000130a:	fffff717          	auipc	a4,0xfffff
    8000130e:	ece70713          	addi	a4,a4,-306 # 800001d8 <default_handler>
    80001312:	ffb8                	sd	a4,120(a5)
    80001314:	00004517          	auipc	a0,0x4
    80001318:	c3450513          	addi	a0,a0,-972 # 80004f48 <__rodata_start+0x190>
    8000131c:	fb3fe0ef          	jal	ra,800002ce <log_trace>
    80001320:	0001                	nop
    80001322:	60a2                	ld	ra,8(sp)
    80001324:	6402                	ld	s0,0(sp)
    80001326:	0141                	addi	sp,sp,16
    80001328:	8082                	ret

000000008000132a <init>:
    8000132a:	1141                	addi	sp,sp,-16
    8000132c:	e406                	sd	ra,8(sp)
    8000132e:	e022                	sd	s0,0(sp)
    80001330:	0800                	addi	s0,sp,16
    80001332:	ddeff0ef          	jal	ra,80000910 <uart_init>
    80001336:	00004517          	auipc	a0,0x4
    8000133a:	c2a50513          	addi	a0,a0,-982 # 80004f60 <__rodata_start+0x1a8>
    8000133e:	f91fe0ef          	jal	ra,800002ce <log_trace>
    80001342:	dffff0ef          	jal	ra,80001140 <trap_init>
    80001346:	6c0020ef          	jal	ra,80003a06 <main>
    8000134a:	00004517          	auipc	a0,0x4
    8000134e:	c2650513          	addi	a0,a0,-986 # 80004f70 <__rodata_start+0x1b8>
    80001352:	f7dfe0ef          	jal	ra,800002ce <log_trace>
    80001356:	0001                	nop
    80001358:	60a2                	ld	ra,8(sp)
    8000135a:	6402                	ld	s0,0(sp)
    8000135c:	0141                	addi	sp,sp,16
    8000135e:	8082                	ret

0000000080001360 <waitfor>:
    80001360:	7179                	addi	sp,sp,-48
    80001362:	f422                	sd	s0,40(sp)
    80001364:	1800                	addi	s0,sp,48
    80001366:	87aa                	mv	a5,a0
    80001368:	fcf42e23          	sw	a5,-36(s0)
    8000136c:	fe042623          	sw	zero,-20(s0)
    80001370:	0001                	nop
    80001372:	fec42783          	lw	a5,-20(s0)
    80001376:	0017871b          	addiw	a4,a5,1
    8000137a:	fee42623          	sw	a4,-20(s0)
    8000137e:	fdc42703          	lw	a4,-36(s0)
    80001382:	2701                	sext.w	a4,a4
    80001384:	fee7e7e3          	bltu	a5,a4,80001372 <waitfor+0x12>
    80001388:	0001                	nop
    8000138a:	0001                	nop
    8000138c:	7422                	ld	s0,40(sp)
    8000138e:	6145                	addi	sp,sp,48
    80001390:	8082                	ret

0000000080001392 <delay>:
    80001392:	7179                	addi	sp,sp,-48
    80001394:	f422                	sd	s0,40(sp)
    80001396:	1800                	addi	s0,sp,48
    80001398:	fca43c23          	sd	a0,-40(s0)
    8000139c:	fd843703          	ld	a4,-40(s0)
    800013a0:	3e800793          	li	a5,1000
    800013a4:	02f707b3          	mul	a5,a4,a5
    800013a8:	fef43423          	sd	a5,-24(s0)
    800013ac:	a829                	j	800013c6 <delay+0x34>
    800013ae:	3e800793          	li	a5,1000
    800013b2:	fef43023          	sd	a5,-32(s0)
    800013b6:	0001                	nop
    800013b8:	fe043783          	ld	a5,-32(s0)
    800013bc:	fff78713          	addi	a4,a5,-1
    800013c0:	fee43023          	sd	a4,-32(s0)
    800013c4:	fbf5                	bnez	a5,800013b8 <delay+0x26>
    800013c6:	fe843783          	ld	a5,-24(s0)
    800013ca:	fff78713          	addi	a4,a5,-1
    800013ce:	fee43423          	sd	a4,-24(s0)
    800013d2:	fff1                	bnez	a5,800013ae <delay+0x1c>
    800013d4:	0001                	nop
    800013d6:	0001                	nop
    800013d8:	7422                	ld	s0,40(sp)
    800013da:	6145                	addi	sp,sp,48
    800013dc:	8082                	ret

00000000800013de <pow_10>:
    800013de:	7179                	addi	sp,sp,-48
    800013e0:	f406                	sd	ra,40(sp)
    800013e2:	f022                	sd	s0,32(sp)
    800013e4:	1800                	addi	s0,sp,48
    800013e6:	87aa                	mv	a5,a0
    800013e8:	fcf42e23          	sw	a5,-36(s0)
    800013ec:	4785                	li	a5,1
    800013ee:	fef42623          	sw	a5,-20(s0)
    800013f2:	fe042423          	sw	zero,-24(s0)
    800013f6:	a00d                	j	80001418 <pow_10+0x3a>
    800013f8:	fec42783          	lw	a5,-20(s0)
    800013fc:	873e                	mv	a4,a5
    800013fe:	87ba                	mv	a5,a4
    80001400:	0027979b          	slliw	a5,a5,0x2
    80001404:	9fb9                	addw	a5,a5,a4
    80001406:	0017979b          	slliw	a5,a5,0x1
    8000140a:	fef42623          	sw	a5,-20(s0)
    8000140e:	fe842783          	lw	a5,-24(s0)
    80001412:	2785                	addiw	a5,a5,1
    80001414:	fef42423          	sw	a5,-24(s0)
    80001418:	fe842783          	lw	a5,-24(s0)
    8000141c:	873e                	mv	a4,a5
    8000141e:	fdc42783          	lw	a5,-36(s0)
    80001422:	2701                	sext.w	a4,a4
    80001424:	2781                	sext.w	a5,a5
    80001426:	fcf769e3          	bltu	a4,a5,800013f8 <pow_10+0x1a>
    8000142a:	fec42783          	lw	a5,-20(s0)
    8000142e:	853e                	mv	a0,a5
    80001430:	328030ef          	jal	ra,80004758 <__floatunsisf>
    80001434:	87aa                	mv	a5,a0
    80001436:	853e                	mv	a0,a5
    80001438:	70a2                	ld	ra,40(sp)
    8000143a:	7402                	ld	s0,32(sp)
    8000143c:	6145                	addi	sp,sp,48
    8000143e:	8082                	ret

0000000080001440 <reverse>:
    80001440:	7179                	addi	sp,sp,-48
    80001442:	f422                	sd	s0,40(sp)
    80001444:	1800                	addi	s0,sp,48
    80001446:	fca43c23          	sd	a0,-40(s0)
    8000144a:	87ae                	mv	a5,a1
    8000144c:	fcf42a23          	sw	a5,-44(s0)
    80001450:	fe042623          	sw	zero,-20(s0)
    80001454:	fd442783          	lw	a5,-44(s0)
    80001458:	37fd                	addiw	a5,a5,-1
    8000145a:	fef42423          	sw	a5,-24(s0)
    8000145e:	a899                	j	800014b4 <reverse+0x74>
    80001460:	fec42783          	lw	a5,-20(s0)
    80001464:	fd843703          	ld	a4,-40(s0)
    80001468:	97ba                	add	a5,a5,a4
    8000146a:	0007c783          	lbu	a5,0(a5)
    8000146e:	fef403a3          	sb	a5,-25(s0)
    80001472:	fe842783          	lw	a5,-24(s0)
    80001476:	fd843703          	ld	a4,-40(s0)
    8000147a:	973e                	add	a4,a4,a5
    8000147c:	fec42783          	lw	a5,-20(s0)
    80001480:	fd843683          	ld	a3,-40(s0)
    80001484:	97b6                	add	a5,a5,a3
    80001486:	00074703          	lbu	a4,0(a4)
    8000148a:	00e78023          	sb	a4,0(a5)
    8000148e:	fe842783          	lw	a5,-24(s0)
    80001492:	fd843703          	ld	a4,-40(s0)
    80001496:	97ba                	add	a5,a5,a4
    80001498:	fe744703          	lbu	a4,-25(s0)
    8000149c:	00e78023          	sb	a4,0(a5)
    800014a0:	fec42783          	lw	a5,-20(s0)
    800014a4:	2785                	addiw	a5,a5,1
    800014a6:	fef42623          	sw	a5,-20(s0)
    800014aa:	fe842783          	lw	a5,-24(s0)
    800014ae:	37fd                	addiw	a5,a5,-1
    800014b0:	fef42423          	sw	a5,-24(s0)
    800014b4:	fec42783          	lw	a5,-20(s0)
    800014b8:	873e                	mv	a4,a5
    800014ba:	fe842783          	lw	a5,-24(s0)
    800014be:	2701                	sext.w	a4,a4
    800014c0:	2781                	sext.w	a5,a5
    800014c2:	f8f74fe3          	blt	a4,a5,80001460 <reverse+0x20>
    800014c6:	0001                	nop
    800014c8:	0001                	nop
    800014ca:	7422                	ld	s0,40(sp)
    800014cc:	6145                	addi	sp,sp,48
    800014ce:	8082                	ret

00000000800014d0 <int_to_string>:
    800014d0:	7179                	addi	sp,sp,-48
    800014d2:	f406                	sd	ra,40(sp)
    800014d4:	f022                	sd	s0,32(sp)
    800014d6:	1800                	addi	s0,sp,48
    800014d8:	87aa                	mv	a5,a0
    800014da:	fcb43823          	sd	a1,-48(s0)
    800014de:	8732                	mv	a4,a2
    800014e0:	fcf42e23          	sw	a5,-36(s0)
    800014e4:	87ba                	mv	a5,a4
    800014e6:	fcf42c23          	sw	a5,-40(s0)
    800014ea:	fe042623          	sw	zero,-20(s0)
    800014ee:	a091                	j	80001532 <int_to_string+0x62>
    800014f0:	fdc42783          	lw	a5,-36(s0)
    800014f4:	873e                	mv	a4,a5
    800014f6:	47a9                	li	a5,10
    800014f8:	02f767bb          	remw	a5,a4,a5
    800014fc:	2781                	sext.w	a5,a5
    800014fe:	0ff7f713          	zext.b	a4,a5
    80001502:	fec46783          	lwu	a5,-20(s0)
    80001506:	fd043683          	ld	a3,-48(s0)
    8000150a:	97b6                	add	a5,a5,a3
    8000150c:	0307071b          	addiw	a4,a4,48
    80001510:	0ff77713          	zext.b	a4,a4
    80001514:	00e78023          	sb	a4,0(a5)
    80001518:	fec42783          	lw	a5,-20(s0)
    8000151c:	2785                	addiw	a5,a5,1
    8000151e:	fef42623          	sw	a5,-20(s0)
    80001522:	fdc42783          	lw	a5,-36(s0)
    80001526:	873e                	mv	a4,a5
    80001528:	47a9                	li	a5,10
    8000152a:	02f747bb          	divw	a5,a4,a5
    8000152e:	fcf42e23          	sw	a5,-36(s0)
    80001532:	fdc42783          	lw	a5,-36(s0)
    80001536:	2781                	sext.w	a5,a5
    80001538:	ffc5                	bnez	a5,800014f0 <int_to_string+0x20>
    8000153a:	a839                	j	80001558 <int_to_string+0x88>
    8000153c:	fec46783          	lwu	a5,-20(s0)
    80001540:	fd043703          	ld	a4,-48(s0)
    80001544:	97ba                	add	a5,a5,a4
    80001546:	03000713          	li	a4,48
    8000154a:	00e78023          	sb	a4,0(a5)
    8000154e:	fec42783          	lw	a5,-20(s0)
    80001552:	2785                	addiw	a5,a5,1
    80001554:	fef42623          	sw	a5,-20(s0)
    80001558:	fec42783          	lw	a5,-20(s0)
    8000155c:	873e                	mv	a4,a5
    8000155e:	fd842783          	lw	a5,-40(s0)
    80001562:	2701                	sext.w	a4,a4
    80001564:	2781                	sext.w	a5,a5
    80001566:	fcf76be3          	bltu	a4,a5,8000153c <int_to_string+0x6c>
    8000156a:	fec42783          	lw	a5,-20(s0)
    8000156e:	85be                	mv	a1,a5
    80001570:	fd043503          	ld	a0,-48(s0)
    80001574:	ecdff0ef          	jal	ra,80001440 <reverse>
    80001578:	fec46783          	lwu	a5,-20(s0)
    8000157c:	fd043703          	ld	a4,-48(s0)
    80001580:	97ba                	add	a5,a5,a4
    80001582:	00078023          	sb	zero,0(a5)
    80001586:	fec42783          	lw	a5,-20(s0)
    8000158a:	853e                	mv	a0,a5
    8000158c:	70a2                	ld	ra,40(sp)
    8000158e:	7402                	ld	s0,32(sp)
    80001590:	6145                	addi	sp,sp,48
    80001592:	8082                	ret

0000000080001594 <ftoa>:
    80001594:	715d                	addi	sp,sp,-80
    80001596:	e486                	sd	ra,72(sp)
    80001598:	e0a2                	sd	s0,64(sp)
    8000159a:	0880                	addi	s0,sp,80
    8000159c:	faa42e23          	sw	a0,-68(s0)
    800015a0:	fab43823          	sd	a1,-80(s0)
    800015a4:	87b2                	mv	a5,a2
    800015a6:	faf42c23          	sw	a5,-72(s0)
    800015aa:	fe042623          	sw	zero,-20(s0)
    800015ae:	fc043023          	sd	zero,-64(s0)
    800015b2:	fc043423          	sd	zero,-56(s0)
    800015b6:	fc043823          	sd	zero,-48(s0)
    800015ba:	fc042c23          	sw	zero,-40(s0)
    800015be:	fc041e23          	sh	zero,-36(s0)
    800015c2:	fbc42503          	lw	a0,-68(s0)
    800015c6:	240030ef          	jal	ra,80004806 <__extendsfdf2>
    800015ca:	872a                	mv	a4,a0
    800015cc:	00004797          	auipc	a5,0x4
    800015d0:	9cc78793          	addi	a5,a5,-1588 # 80004f98 <__rodata_start+0x1e0>
    800015d4:	638c                	ld	a1,0(a5)
    800015d6:	853a                	mv	a0,a4
    800015d8:	6b4020ef          	jal	ra,80003c8c <__adddf3>
    800015dc:	87aa                	mv	a5,a0
    800015de:	853e                	mv	a0,a5
    800015e0:	292030ef          	jal	ra,80004872 <__truncdfsf2>
    800015e4:	87aa                	mv	a5,a0
    800015e6:	faf42e23          	sw	a5,-68(s0)
    800015ea:	fbc42503          	lw	a0,-68(s0)
    800015ee:	038030ef          	jal	ra,80004626 <__fixsfsi>
    800015f2:	87aa                	mv	a5,a0
    800015f4:	fef42423          	sw	a5,-24(s0)
    800015f8:	fe842783          	lw	a5,-24(s0)
    800015fc:	853e                	mv	a0,a5
    800015fe:	094030ef          	jal	ra,80004692 <__floatsisf>
    80001602:	87aa                	mv	a5,a0
    80001604:	85be                	mv	a1,a5
    80001606:	fbc42503          	lw	a0,-68(s0)
    8000160a:	4d7020ef          	jal	ra,800042e0 <__subsf3>
    8000160e:	87aa                	mv	a5,a0
    80001610:	fef42223          	sw	a5,-28(s0)
    80001614:	fe042023          	sw	zero,-32(s0)
    80001618:	00000593          	li	a1,0
    8000161c:	fbc42503          	lw	a0,-68(s0)
    80001620:	215020ef          	jal	ra,80004034 <__lesf2>
    80001624:	87aa                	mv	a5,a0
    80001626:	0007de63          	bgez	a5,80001642 <ftoa+0xae>
    8000162a:	fe042783          	lw	a5,-32(s0)
    8000162e:	fb043703          	ld	a4,-80(s0)
    80001632:	97ba                	add	a5,a5,a4
    80001634:	02d00713          	li	a4,45
    80001638:	00e78023          	sb	a4,0(a5)
    8000163c:	4785                	li	a5,1
    8000163e:	fef42023          	sw	a5,-32(s0)
    80001642:	fe842783          	lw	a5,-24(s0)
    80001646:	2781                	sext.w	a5,a5
    80001648:	e385                	bnez	a5,80001668 <ftoa+0xd4>
    8000164a:	fe042783          	lw	a5,-32(s0)
    8000164e:	fb043703          	ld	a4,-80(s0)
    80001652:	97ba                	add	a5,a5,a4
    80001654:	03000713          	li	a4,48
    80001658:	00e78023          	sb	a4,0(a5)
    8000165c:	fe042783          	lw	a5,-32(s0)
    80001660:	2785                	addiw	a5,a5,1
    80001662:	fef42023          	sw	a5,-32(s0)
    80001666:	a099                	j	800016ac <ftoa+0x118>
    80001668:	fe842783          	lw	a5,-24(s0)
    8000166c:	2781                	sext.w	a5,a5
    8000166e:	0007d863          	bgez	a5,8000167e <ftoa+0xea>
    80001672:	fe842783          	lw	a5,-24(s0)
    80001676:	40f007bb          	negw	a5,a5
    8000167a:	fef42423          	sw	a5,-24(s0)
    8000167e:	fc040713          	addi	a4,s0,-64
    80001682:	fe842783          	lw	a5,-24(s0)
    80001686:	4601                	li	a2,0
    80001688:	85ba                	mv	a1,a4
    8000168a:	853e                	mv	a0,a5
    8000168c:	e45ff0ef          	jal	ra,800014d0 <int_to_string>
    80001690:	87aa                	mv	a5,a0
    80001692:	fef42623          	sw	a5,-20(s0)
    80001696:	fe042783          	lw	a5,-32(s0)
    8000169a:	fb043703          	ld	a4,-80(s0)
    8000169e:	97ba                	add	a5,a5,a4
    800016a0:	fc040713          	addi	a4,s0,-64
    800016a4:	85ba                	mv	a1,a4
    800016a6:	853e                	mv	a0,a5
    800016a8:	5dc030ef          	jal	ra,80004c84 <strcpy>
    800016ac:	fec42783          	lw	a5,-20(s0)
    800016b0:	873e                	mv	a4,a5
    800016b2:	fe042783          	lw	a5,-32(s0)
    800016b6:	9fb9                	addw	a5,a5,a4
    800016b8:	fef42623          	sw	a5,-20(s0)
    800016bc:	fb842783          	lw	a5,-72(s0)
    800016c0:	2781                	sext.w	a5,a5
    800016c2:	c7c1                	beqz	a5,8000174a <ftoa+0x1b6>
    800016c4:	fec42783          	lw	a5,-20(s0)
    800016c8:	fb043703          	ld	a4,-80(s0)
    800016cc:	97ba                	add	a5,a5,a4
    800016ce:	02e00713          	li	a4,46
    800016d2:	00e78023          	sb	a4,0(a5)
    800016d6:	00000593          	li	a1,0
    800016da:	fe442503          	lw	a0,-28(s0)
    800016de:	157020ef          	jal	ra,80004034 <__lesf2>
    800016e2:	87aa                	mv	a5,a0
    800016e4:	0007db63          	bgez	a5,800016fa <ftoa+0x166>
    800016e8:	fe442783          	lw	a5,-28(s0)
    800016ec:	873e                	mv	a4,a5
    800016ee:	800007b7          	lui	a5,0x80000
    800016f2:	8fb9                	xor	a5,a5,a4
    800016f4:	fef42223          	sw	a5,-28(s0)
    800016f8:	a039                	j	80001706 <ftoa+0x172>
    800016fa:	00000593          	li	a1,0
    800016fe:	fe442503          	lw	a0,-28(s0)
    80001702:	0c1020ef          	jal	ra,80003fc2 <__eqsf2>
    80001706:	fb842783          	lw	a5,-72(s0)
    8000170a:	853e                	mv	a0,a5
    8000170c:	cd3ff0ef          	jal	ra,800013de <pow_10>
    80001710:	87aa                	mv	a5,a0
    80001712:	85be                	mv	a1,a5
    80001714:	fe442503          	lw	a0,-28(s0)
    80001718:	1bb020ef          	jal	ra,800040d2 <__mulsf3>
    8000171c:	87aa                	mv	a5,a0
    8000171e:	fef42223          	sw	a5,-28(s0)
    80001722:	fe442503          	lw	a0,-28(s0)
    80001726:	701020ef          	jal	ra,80004626 <__fixsfsi>
    8000172a:	87aa                	mv	a5,a0
    8000172c:	0007869b          	sext.w	a3,a5
    80001730:	fec42783          	lw	a5,-20(s0)
    80001734:	0785                	addi	a5,a5,1 # ffffffff80000001 <__stack_pointer$+0xfffffffef8000401>
    80001736:	fb043703          	ld	a4,-80(s0)
    8000173a:	97ba                	add	a5,a5,a4
    8000173c:	fb842703          	lw	a4,-72(s0)
    80001740:	863a                	mv	a2,a4
    80001742:	85be                	mv	a1,a5
    80001744:	8536                	mv	a0,a3
    80001746:	d8bff0ef          	jal	ra,800014d0 <int_to_string>
    8000174a:	0001                	nop
    8000174c:	60a6                	ld	ra,72(sp)
    8000174e:	6406                	ld	s0,64(sp)
    80001750:	6161                	addi	sp,sp,80
    80001752:	8082                	ret

0000000080001754 <delay_loop>:
    80001754:	7179                	addi	sp,sp,-48
    80001756:	f422                	sd	s0,40(sp)
    80001758:	1800                	addi	s0,sp,48
    8000175a:	fca43c23          	sd	a0,-40(s0)
    8000175e:	fcb43823          	sd	a1,-48(s0)
    80001762:	fd043783          	ld	a5,-48(s0)
    80001766:	fef43423          	sd	a5,-24(s0)
    8000176a:	a829                	j	80001784 <delay_loop+0x30>
    8000176c:	fd043783          	ld	a5,-48(s0)
    80001770:	fef43423          	sd	a5,-24(s0)
    80001774:	0001                	nop
    80001776:	fe843783          	ld	a5,-24(s0)
    8000177a:	fff78713          	addi	a4,a5,-1
    8000177e:	fee43423          	sd	a4,-24(s0)
    80001782:	fbf5                	bnez	a5,80001776 <delay_loop+0x22>
    80001784:	fd843783          	ld	a5,-40(s0)
    80001788:	fff78713          	addi	a4,a5,-1
    8000178c:	fce43c23          	sd	a4,-40(s0)
    80001790:	fff1                	bnez	a5,8000176c <delay_loop+0x18>
    80001792:	0001                	nop
    80001794:	0001                	nop
    80001796:	7422                	ld	s0,40(sp)
    80001798:	6145                	addi	sp,sp,48
    8000179a:	8082                	ret

000000008000179c <read_word>:
    8000179c:	1101                	addi	sp,sp,-32
    8000179e:	ec06                	sd	ra,24(sp)
    800017a0:	e822                	sd	s0,16(sp)
    800017a2:	1000                	addi	s0,sp,32
    800017a4:	fea43423          	sd	a0,-24(s0)
    800017a8:	fe843783          	ld	a5,-24(s0)
    800017ac:	439c                	lw	a5,0(a5)
    800017ae:	863e                	mv	a2,a5
    800017b0:	fe843583          	ld	a1,-24(s0)
    800017b4:	00003517          	auipc	a0,0x3
    800017b8:	7cc50513          	addi	a0,a0,1996 # 80004f80 <__rodata_start+0x1c8>
    800017bc:	b81fe0ef          	jal	ra,8000033c <log_debug>
    800017c0:	fe843783          	ld	a5,-24(s0)
    800017c4:	439c                	lw	a5,0(a5)
    800017c6:	1782                	slli	a5,a5,0x20
    800017c8:	9381                	srli	a5,a5,0x20
    800017ca:	853e                	mv	a0,a5
    800017cc:	60e2                	ld	ra,24(sp)
    800017ce:	6442                	ld	s0,16(sp)
    800017d0:	6105                	addi	sp,sp,32
    800017d2:	8082                	ret

00000000800017d4 <write_word>:
    800017d4:	1101                	addi	sp,sp,-32
    800017d6:	ec06                	sd	ra,24(sp)
    800017d8:	e822                	sd	s0,16(sp)
    800017da:	1000                	addi	s0,sp,32
    800017dc:	fea43423          	sd	a0,-24(s0)
    800017e0:	feb43023          	sd	a1,-32(s0)
    800017e4:	fe043783          	ld	a5,-32(s0)
    800017e8:	0007871b          	sext.w	a4,a5
    800017ec:	fe843783          	ld	a5,-24(s0)
    800017f0:	c398                	sw	a4,0(a5)
    800017f2:	fe843783          	ld	a5,-24(s0)
    800017f6:	439c                	lw	a5,0(a5)
    800017f8:	863e                	mv	a2,a5
    800017fa:	fe843583          	ld	a1,-24(s0)
    800017fe:	00003517          	auipc	a0,0x3
    80001802:	78250513          	addi	a0,a0,1922 # 80004f80 <__rodata_start+0x1c8>
    80001806:	b37fe0ef          	jal	ra,8000033c <log_debug>
    8000180a:	0001                	nop
    8000180c:	60e2                	ld	ra,24(sp)
    8000180e:	6442                	ld	s0,16(sp)
    80001810:	6105                	addi	sp,sp,32
    80001812:	8082                	ret

0000000080001814 <mtime_low>:
    80001814:	1141                	addi	sp,sp,-16
    80001816:	e422                	sd	s0,8(sp)
    80001818:	0800                	addi	s0,sp,16
    8000181a:	0200c7b7          	lui	a5,0x200c
    8000181e:	17e1                	addi	a5,a5,-8 # 200bff8 <_tbss_end+0x200bff8>
    80001820:	439c                	lw	a5,0(a5)
    80001822:	853e                	mv	a0,a5
    80001824:	6422                	ld	s0,8(sp)
    80001826:	0141                	addi	sp,sp,16
    80001828:	8082                	ret

000000008000182a <mtime_high>:
    8000182a:	1141                	addi	sp,sp,-16
    8000182c:	e422                	sd	s0,8(sp)
    8000182e:	0800                	addi	s0,sp,16
    80001830:	0200c7b7          	lui	a5,0x200c
    80001834:	17f1                	addi	a5,a5,-4 # 200bffc <_tbss_end+0x200bffc>
    80001836:	439c                	lw	a5,0(a5)
    80001838:	2781                	sext.w	a5,a5
    8000183a:	853e                	mv	a0,a5
    8000183c:	6422                	ld	s0,8(sp)
    8000183e:	0141                	addi	sp,sp,16
    80001840:	8082                	ret

0000000080001842 <get_timer_value>:
    80001842:	1101                	addi	sp,sp,-32
    80001844:	ec06                	sd	ra,24(sp)
    80001846:	e822                	sd	s0,16(sp)
    80001848:	e426                	sd	s1,8(sp)
    8000184a:	1000                	addi	s0,sp,32
    8000184c:	fdfff0ef          	jal	ra,8000182a <mtime_high>
    80001850:	87aa                	mv	a5,a0
    80001852:	2781                	sext.w	a5,a5
    80001854:	1782                	slli	a5,a5,0x20
    80001856:	9381                	srli	a5,a5,0x20
    80001858:	02079493          	slli	s1,a5,0x20
    8000185c:	fb9ff0ef          	jal	ra,80001814 <mtime_low>
    80001860:	87aa                	mv	a5,a0
    80001862:	2781                	sext.w	a5,a5
    80001864:	1782                	slli	a5,a5,0x20
    80001866:	9381                	srli	a5,a5,0x20
    80001868:	8fc5                	or	a5,a5,s1
    8000186a:	853e                	mv	a0,a5
    8000186c:	60e2                	ld	ra,24(sp)
    8000186e:	6442                	ld	s0,16(sp)
    80001870:	64a2                	ld	s1,8(sp)
    80001872:	6105                	addi	sp,sp,32
    80001874:	8082                	ret

0000000080001876 <configure_counter>:
    80001876:	1101                	addi	sp,sp,-32
    80001878:	ec06                	sd	ra,24(sp)
    8000187a:	e822                	sd	s0,16(sp)
    8000187c:	1000                	addi	s0,sp,32
    8000187e:	fea43423          	sd	a0,-24(s0)
    80001882:	00003517          	auipc	a0,0x3
    80001886:	71e50513          	addi	a0,a0,1822 # 80004fa0 <__rodata_start+0x1e8>
    8000188a:	a45fe0ef          	jal	ra,800002ce <log_trace>
    8000188e:	83818793          	addi	a5,gp,-1992 # 80005f30 <mtime>
    80001892:	639c                	ld	a5,0(a5)
    80001894:	6394                	ld	a3,0(a5)
    80001896:	84018793          	addi	a5,gp,-1984 # 80005f38 <mtimecmp>
    8000189a:	639c                	ld	a5,0(a5)
    8000189c:	fe843703          	ld	a4,-24(s0)
    800018a0:	9736                	add	a4,a4,a3
    800018a2:	e398                	sd	a4,0(a5)
    800018a4:	84018793          	addi	a5,gp,-1984 # 80005f38 <mtimecmp>
    800018a8:	639c                	ld	a5,0(a5)
    800018aa:	639c                	ld	a5,0(a5)
    800018ac:	85be                	mv	a1,a5
    800018ae:	00003517          	auipc	a0,0x3
    800018b2:	71250513          	addi	a0,a0,1810 # 80004fc0 <__rodata_start+0x208>
    800018b6:	a87fe0ef          	jal	ra,8000033c <log_debug>
    800018ba:	83818793          	addi	a5,gp,-1992 # 80005f30 <mtime>
    800018be:	639c                	ld	a5,0(a5)
    800018c0:	639c                	ld	a5,0(a5)
    800018c2:	85be                	mv	a1,a5
    800018c4:	00003517          	auipc	a0,0x3
    800018c8:	71450513          	addi	a0,a0,1812 # 80004fd8 <__rodata_start+0x220>
    800018cc:	a71fe0ef          	jal	ra,8000033c <log_debug>
    800018d0:	00003517          	auipc	a0,0x3
    800018d4:	72050513          	addi	a0,a0,1824 # 80004ff0 <__rodata_start+0x238>
    800018d8:	9f7fe0ef          	jal	ra,800002ce <log_trace>
    800018dc:	0001                	nop
    800018de:	60e2                	ld	ra,24(sp)
    800018e0:	6442                	ld	s0,16(sp)
    800018e2:	6105                	addi	sp,sp,32
    800018e4:	8082                	ret

00000000800018e6 <mach_clint_handler>:
    800018e6:	1101                	addi	sp,sp,-32
    800018e8:	ec06                	sd	ra,24(sp)
    800018ea:	e822                	sd	s0,16(sp)
    800018ec:	1000                	addi	s0,sp,32
    800018ee:	fea43423          	sd	a0,-24(s0)
    800018f2:	feb43023          	sd	a1,-32(s0)
    800018f6:	00003517          	auipc	a0,0x3
    800018fa:	71a50513          	addi	a0,a0,1818 # 80005010 <__rodata_start+0x258>
    800018fe:	9d1fe0ef          	jal	ra,800002ce <log_trace>
    80001902:	84018793          	addi	a5,gp,-1984 # 80005f38 <mtimecmp>
    80001906:	639c                	ld	a5,0(a5)
    80001908:	577d                	li	a4,-1
    8000190a:	e398                	sd	a4,0(a5)
    8000190c:	00003517          	auipc	a0,0x3
    80001910:	72450513          	addi	a0,a0,1828 # 80005030 <__rodata_start+0x278>
    80001914:	9dffe0ef          	jal	ra,800002f2 <log_info>
    80001918:	00003517          	auipc	a0,0x3
    8000191c:	73850513          	addi	a0,a0,1848 # 80005050 <__rodata_start+0x298>
    80001920:	9affe0ef          	jal	ra,800002ce <log_trace>
    80001924:	0001                	nop
    80001926:	60e2                	ld	ra,24(sp)
    80001928:	6442                	ld	s0,16(sp)
    8000192a:	6105                	addi	sp,sp,32
    8000192c:	8082                	ret

000000008000192e <interrupt_complete>:
    8000192e:	7179                	addi	sp,sp,-48
    80001930:	f406                	sd	ra,40(sp)
    80001932:	f022                	sd	s0,32(sp)
    80001934:	1800                	addi	s0,sp,48
    80001936:	87aa                	mv	a5,a0
    80001938:	fcf42e23          	sw	a5,-36(s0)
    8000193c:	00003517          	auipc	a0,0x3
    80001940:	73450513          	addi	a0,a0,1844 # 80005070 <__rodata_start+0x2b8>
    80001944:	98bfe0ef          	jal	ra,800002ce <log_trace>
    80001948:	0c0107b7          	lui	a5,0xc010
    8000194c:	07c1                	addi	a5,a5,16 # c010010 <_free_space+0x401e9c8>
    8000194e:	fef43423          	sd	a5,-24(s0)
    80001952:	fe843783          	ld	a5,-24(s0)
    80001956:	fdc42703          	lw	a4,-36(s0)
    8000195a:	c398                	sw	a4,0(a5)
    8000195c:	0000c717          	auipc	a4,0xc
    80001960:	6d470713          	addi	a4,a4,1748 # 8000e030 <hart0_interrupt_matrix>
    80001964:	fdc46783          	lwu	a5,-36(s0)
    80001968:	0792                	slli	a5,a5,0x4
    8000196a:	97ba                	add	a5,a5,a4
    8000196c:	4709                	li	a4,2
    8000196e:	c798                	sw	a4,8(a5)
    80001970:	0000c717          	auipc	a4,0xc
    80001974:	6c070713          	addi	a4,a4,1728 # 8000e030 <hart0_interrupt_matrix>
    80001978:	fdc46783          	lwu	a5,-36(s0)
    8000197c:	0792                	slli	a5,a5,0x4
    8000197e:	97ba                	add	a5,a5,a4
    80001980:	47dc                	lw	a5,12(a5)
    80001982:	2785                	addiw	a5,a5,1
    80001984:	0007871b          	sext.w	a4,a5
    80001988:	0000c697          	auipc	a3,0xc
    8000198c:	6a868693          	addi	a3,a3,1704 # 8000e030 <hart0_interrupt_matrix>
    80001990:	fdc46783          	lwu	a5,-36(s0)
    80001994:	0792                	slli	a5,a5,0x4
    80001996:	97b6                	add	a5,a5,a3
    80001998:	c7d8                	sw	a4,12(a5)
    8000199a:	0000c717          	auipc	a4,0xc
    8000199e:	69670713          	addi	a4,a4,1686 # 8000e030 <hart0_interrupt_matrix>
    800019a2:	fdc46783          	lwu	a5,-36(s0)
    800019a6:	0792                	slli	a5,a5,0x4
    800019a8:	97ba                	add	a5,a5,a4
    800019aa:	4798                	lw	a4,8(a5)
    800019ac:	fdc42783          	lw	a5,-36(s0)
    800019b0:	863a                	mv	a2,a4
    800019b2:	85be                	mv	a1,a5
    800019b4:	00003517          	auipc	a0,0x3
    800019b8:	6dc50513          	addi	a0,a0,1756 # 80005090 <__rodata_start+0x2d8>
    800019bc:	981fe0ef          	jal	ra,8000033c <log_debug>
    800019c0:	0000c717          	auipc	a4,0xc
    800019c4:	67070713          	addi	a4,a4,1648 # 8000e030 <hart0_interrupt_matrix>
    800019c8:	fdc46783          	lwu	a5,-36(s0)
    800019cc:	0792                	slli	a5,a5,0x4
    800019ce:	97ba                	add	a5,a5,a4
    800019d0:	438c                	lw	a1,0(a5)
    800019d2:	0000c717          	auipc	a4,0xc
    800019d6:	65e70713          	addi	a4,a4,1630 # 8000e030 <hart0_interrupt_matrix>
    800019da:	fdc46783          	lwu	a5,-36(s0)
    800019de:	0792                	slli	a5,a5,0x4
    800019e0:	97ba                	add	a5,a5,a4
    800019e2:	4790                	lw	a2,8(a5)
    800019e4:	0000c717          	auipc	a4,0xc
    800019e8:	64c70713          	addi	a4,a4,1612 # 8000e030 <hart0_interrupt_matrix>
    800019ec:	fdc46783          	lwu	a5,-36(s0)
    800019f0:	0792                	slli	a5,a5,0x4
    800019f2:	97ba                	add	a5,a5,a4
    800019f4:	43d4                	lw	a3,4(a5)
    800019f6:	0000c717          	auipc	a4,0xc
    800019fa:	63a70713          	addi	a4,a4,1594 # 8000e030 <hart0_interrupt_matrix>
    800019fe:	fdc46783          	lwu	a5,-36(s0)
    80001a02:	0792                	slli	a5,a5,0x4
    80001a04:	97ba                	add	a5,a5,a4
    80001a06:	47dc                	lw	a5,12(a5)
    80001a08:	873e                	mv	a4,a5
    80001a0a:	00003517          	auipc	a0,0x3
    80001a0e:	6ae50513          	addi	a0,a0,1710 # 800050b8 <__rodata_start+0x300>
    80001a12:	92bfe0ef          	jal	ra,8000033c <log_debug>
    80001a16:	00003517          	auipc	a0,0x3
    80001a1a:	6fa50513          	addi	a0,a0,1786 # 80005110 <__rodata_start+0x358>
    80001a1e:	8b1fe0ef          	jal	ra,800002ce <log_trace>
    80001a22:	0001                	nop
    80001a24:	70a2                	ld	ra,40(sp)
    80001a26:	7402                	ld	s0,32(sp)
    80001a28:	6145                	addi	sp,sp,48
    80001a2a:	8082                	ret

0000000080001a2c <interrupt_claim_request>:
    80001a2c:	1101                	addi	sp,sp,-32
    80001a2e:	ec06                	sd	ra,24(sp)
    80001a30:	e822                	sd	s0,16(sp)
    80001a32:	1000                	addi	s0,sp,32
    80001a34:	fe043423          	sd	zero,-24(s0)
    80001a38:	00003517          	auipc	a0,0x3
    80001a3c:	6f850513          	addi	a0,a0,1784 # 80005130 <__rodata_start+0x378>
    80001a40:	88ffe0ef          	jal	ra,800002ce <log_trace>
    80001a44:	0c0107b7          	lui	a5,0xc010
    80001a48:	07c1                	addi	a5,a5,16 # c010010 <_free_space+0x401e9c8>
    80001a4a:	fef43423          	sd	a5,-24(s0)
    80001a4e:	fe843783          	ld	a5,-24(s0)
    80001a52:	439c                	lw	a5,0(a5)
    80001a54:	fef42223          	sw	a5,-28(s0)
    80001a58:	fe442783          	lw	a5,-28(s0)
    80001a5c:	fe843603          	ld	a2,-24(s0)
    80001a60:	85be                	mv	a1,a5
    80001a62:	00003517          	auipc	a0,0x3
    80001a66:	6f650513          	addi	a0,a0,1782 # 80005158 <__rodata_start+0x3a0>
    80001a6a:	8d3fe0ef          	jal	ra,8000033c <log_debug>
    80001a6e:	00003517          	auipc	a0,0x3
    80001a72:	71a50513          	addi	a0,a0,1818 # 80005188 <__rodata_start+0x3d0>
    80001a76:	859fe0ef          	jal	ra,800002ce <log_trace>
    80001a7a:	fe442783          	lw	a5,-28(s0)
    80001a7e:	853e                	mv	a0,a5
    80001a80:	60e2                	ld	ra,24(sp)
    80001a82:	6442                	ld	s0,16(sp)
    80001a84:	6105                	addi	sp,sp,32
    80001a86:	8082                	ret

0000000080001a88 <mach_plic_handler>:
    80001a88:	7179                	addi	sp,sp,-48
    80001a8a:	f406                	sd	ra,40(sp)
    80001a8c:	f022                	sd	s0,32(sp)
    80001a8e:	1800                	addi	s0,sp,48
    80001a90:	fca43c23          	sd	a0,-40(s0)
    80001a94:	fcb43823          	sd	a1,-48(s0)
    80001a98:	00003517          	auipc	a0,0x3
    80001a9c:	71050513          	addi	a0,a0,1808 # 800051a8 <__rodata_start+0x3f0>
    80001aa0:	82ffe0ef          	jal	ra,800002ce <log_trace>
    80001aa4:	f89ff0ef          	jal	ra,80001a2c <interrupt_claim_request>
    80001aa8:	87aa                	mv	a5,a0
    80001aaa:	fef42623          	sw	a5,-20(s0)
    80001aae:	fec42783          	lw	a5,-20(s0)
    80001ab2:	85be                	mv	a1,a5
    80001ab4:	00003517          	auipc	a0,0x3
    80001ab8:	71450513          	addi	a0,a0,1812 # 800051c8 <__rodata_start+0x410>
    80001abc:	881fe0ef          	jal	ra,8000033c <log_debug>
    80001ac0:	fec42783          	lw	a5,-20(s0)
    80001ac4:	2781                	sext.w	a5,a5
    80001ac6:	cb81                	beqz	a5,80001ad6 <mach_plic_handler+0x4e>
    80001ac8:	fec42783          	lw	a5,-20(s0)
    80001acc:	0007871b          	sext.w	a4,a5
    80001ad0:	47e9                	li	a5,26
    80001ad2:	00e7fb63          	bgeu	a5,a4,80001ae8 <mach_plic_handler+0x60>
    80001ad6:	fec42783          	lw	a5,-20(s0)
    80001ada:	85be                	mv	a1,a5
    80001adc:	00003517          	auipc	a0,0x3
    80001ae0:	70c50513          	addi	a0,a0,1804 # 800051e8 <__rodata_start+0x430>
    80001ae4:	911fe0ef          	jal	ra,800003f4 <log_fatal>
    80001ae8:	0000c717          	auipc	a4,0xc
    80001aec:	54870713          	addi	a4,a4,1352 # 8000e030 <hart0_interrupt_matrix>
    80001af0:	fec46783          	lwu	a5,-20(s0)
    80001af4:	0792                	slli	a5,a5,0x4
    80001af6:	97ba                	add	a5,a5,a4
    80001af8:	4705                	li	a4,1
    80001afa:	c798                	sw	a4,8(a5)
    80001afc:	0000c717          	auipc	a4,0xc
    80001b00:	53470713          	addi	a4,a4,1332 # 8000e030 <hart0_interrupt_matrix>
    80001b04:	fec46783          	lwu	a5,-20(s0)
    80001b08:	0792                	slli	a5,a5,0x4
    80001b0a:	97ba                	add	a5,a5,a4
    80001b0c:	4798                	lw	a4,8(a5)
    80001b0e:	fec42783          	lw	a5,-20(s0)
    80001b12:	863a                	mv	a2,a4
    80001b14:	85be                	mv	a1,a5
    80001b16:	00003517          	auipc	a0,0x3
    80001b1a:	57a50513          	addi	a0,a0,1402 # 80005090 <__rodata_start+0x2d8>
    80001b1e:	81ffe0ef          	jal	ra,8000033c <log_debug>
    80001b22:	0000c717          	auipc	a4,0xc
    80001b26:	43e70713          	addi	a4,a4,1086 # 8000df60 <isr_table>
    80001b2a:	fec46783          	lwu	a5,-20(s0)
    80001b2e:	078e                	slli	a5,a5,0x3
    80001b30:	97ba                	add	a5,a5,a4
    80001b32:	639c                	ld	a5,0(a5)
    80001b34:	fec42703          	lw	a4,-20(s0)
    80001b38:	853a                	mv	a0,a4
    80001b3a:	9782                	jalr	a5
    80001b3c:	fec42783          	lw	a5,-20(s0)
    80001b40:	853e                	mv	a0,a5
    80001b42:	dedff0ef          	jal	ra,8000192e <interrupt_complete>
    80001b46:	fec42783          	lw	a5,-20(s0)
    80001b4a:	85be                	mv	a1,a5
    80001b4c:	00003517          	auipc	a0,0x3
    80001b50:	6d450513          	addi	a0,a0,1748 # 80005220 <__rodata_start+0x468>
    80001b54:	fe8fe0ef          	jal	ra,8000033c <log_debug>
    80001b58:	00003517          	auipc	a0,0x3
    80001b5c:	6e850513          	addi	a0,a0,1768 # 80005240 <__rodata_start+0x488>
    80001b60:	f6efe0ef          	jal	ra,800002ce <log_trace>
    80001b64:	0001                	nop
    80001b66:	70a2                	ld	ra,40(sp)
    80001b68:	7402                	ld	s0,32(sp)
    80001b6a:	6145                	addi	sp,sp,48
    80001b6c:	8082                	ret

0000000080001b6e <isr_default>:
    80001b6e:	1101                	addi	sp,sp,-32
    80001b70:	ec06                	sd	ra,24(sp)
    80001b72:	e822                	sd	s0,16(sp)
    80001b74:	1000                	addi	s0,sp,32
    80001b76:	87aa                	mv	a5,a0
    80001b78:	fef42623          	sw	a5,-20(s0)
    80001b7c:	00003517          	auipc	a0,0x3
    80001b80:	6e450513          	addi	a0,a0,1764 # 80005260 <__rodata_start+0x4a8>
    80001b84:	f4afe0ef          	jal	ra,800002ce <log_trace>
    80001b88:	fec42783          	lw	a5,-20(s0)
    80001b8c:	2781                	sext.w	a5,a5
    80001b8e:	cf95                	beqz	a5,80001bca <isr_default+0x5c>
    80001b90:	fec42783          	lw	a5,-20(s0)
    80001b94:	0007871b          	sext.w	a4,a5
    80001b98:	4799                	li	a5,6
    80001b9a:	02e7e863          	bltu	a5,a4,80001bca <isr_default+0x5c>
    80001b9e:	4799                	li	a5,6
    80001ba0:	fec42703          	lw	a4,-20(s0)
    80001ba4:	9f99                	subw	a5,a5,a4
    80001ba6:	2781                	sext.w	a5,a5
    80001ba8:	2781                	sext.w	a5,a5
    80001baa:	853e                	mv	a0,a5
    80001bac:	746000ef          	jal	ra,800022f2 <pwm_check_continuous_mode>
    80001bb0:	87aa                	mv	a5,a0
    80001bb2:	ef81                	bnez	a5,80001bca <isr_default+0x5c>
    80001bb4:	4799                	li	a5,6
    80001bb6:	fec42703          	lw	a4,-20(s0)
    80001bba:	9f99                	subw	a5,a5,a4
    80001bbc:	2781                	sext.w	a5,a5
    80001bbe:	2781                	sext.w	a5,a5
    80001bc0:	08000593          	li	a1,128
    80001bc4:	853e                	mv	a0,a5
    80001bc6:	6a6000ef          	jal	ra,8000226c <set_pwm_control_register>
    80001bca:	fec42783          	lw	a5,-20(s0)
    80001bce:	85be                	mv	a1,a5
    80001bd0:	00003517          	auipc	a0,0x3
    80001bd4:	6a850513          	addi	a0,a0,1704 # 80005278 <__rodata_start+0x4c0>
    80001bd8:	f1afe0ef          	jal	ra,800002f2 <log_info>
    80001bdc:	00003517          	auipc	a0,0x3
    80001be0:	6bc50513          	addi	a0,a0,1724 # 80005298 <__rodata_start+0x4e0>
    80001be4:	eeafe0ef          	jal	ra,800002ce <log_trace>
    80001be8:	0001                	nop
    80001bea:	60e2                	ld	ra,24(sp)
    80001bec:	6442                	ld	s0,16(sp)
    80001bee:	6105                	addi	sp,sp,32
    80001bf0:	8082                	ret

0000000080001bf2 <interrupt_enable>:
    80001bf2:	7139                	addi	sp,sp,-64
    80001bf4:	fc06                	sd	ra,56(sp)
    80001bf6:	f822                	sd	s0,48(sp)
    80001bf8:	0080                	addi	s0,sp,64
    80001bfa:	87aa                	mv	a5,a0
    80001bfc:	fcf42623          	sw	a5,-52(s0)
    80001c00:	fe0407a3          	sb	zero,-17(s0)
    80001c04:	00003517          	auipc	a0,0x3
    80001c08:	6ac50513          	addi	a0,a0,1708 # 800052b0 <__rodata_start+0x4f8>
    80001c0c:	ec2fe0ef          	jal	ra,800002ce <log_trace>
    80001c10:	fcc42783          	lw	a5,-52(s0)
    80001c14:	85be                	mv	a1,a5
    80001c16:	00003517          	auipc	a0,0x3
    80001c1a:	6ba50513          	addi	a0,a0,1722 # 800052d0 <__rodata_start+0x518>
    80001c1e:	f1efe0ef          	jal	ra,8000033c <log_debug>
    80001c22:	6609                	lui	a2,0x2
    80001c24:	0c0005b7          	lui	a1,0xc000
    80001c28:	00003517          	auipc	a0,0x3
    80001c2c:	6c050513          	addi	a0,a0,1728 # 800052e8 <__rodata_start+0x530>
    80001c30:	f0cfe0ef          	jal	ra,8000033c <log_debug>
    80001c34:	fcc42783          	lw	a5,-52(s0)
    80001c38:	0037d79b          	srliw	a5,a5,0x3
    80001c3c:	2781                	sext.w	a5,a5
    80001c3e:	02079713          	slli	a4,a5,0x20
    80001c42:	9301                	srli	a4,a4,0x20
    80001c44:	0c0027b7          	lui	a5,0xc002
    80001c48:	97ba                	add	a5,a5,a4
    80001c4a:	fef43023          	sd	a5,-32(s0)
    80001c4e:	fe043783          	ld	a5,-32(s0)
    80001c52:	0007c783          	lbu	a5,0(a5) # c002000 <_free_space+0x40109b8>
    80001c56:	fef407a3          	sb	a5,-17(s0)
    80001c5a:	fef44783          	lbu	a5,-17(s0)
    80001c5e:	2781                	sext.w	a5,a5
    80001c60:	863e                	mv	a2,a5
    80001c62:	fe043583          	ld	a1,-32(s0)
    80001c66:	00003517          	auipc	a0,0x3
    80001c6a:	6ba50513          	addi	a0,a0,1722 # 80005320 <__rodata_start+0x568>
    80001c6e:	ecefe0ef          	jal	ra,8000033c <log_debug>
    80001c72:	fcc42783          	lw	a5,-52(s0)
    80001c76:	8b9d                	andi	a5,a5,7
    80001c78:	2781                	sext.w	a5,a5
    80001c7a:	4705                	li	a4,1
    80001c7c:	00f717bb          	sllw	a5,a4,a5
    80001c80:	2781                	sext.w	a5,a5
    80001c82:	0187971b          	slliw	a4,a5,0x18
    80001c86:	4187571b          	sraiw	a4,a4,0x18
    80001c8a:	fef40783          	lb	a5,-17(s0)
    80001c8e:	8fd9                	or	a5,a5,a4
    80001c90:	0187979b          	slliw	a5,a5,0x18
    80001c94:	4187d79b          	sraiw	a5,a5,0x18
    80001c98:	fcf40fa3          	sb	a5,-33(s0)
    80001c9c:	fe043783          	ld	a5,-32(s0)
    80001ca0:	fdf44703          	lbu	a4,-33(s0)
    80001ca4:	00e78023          	sb	a4,0(a5)
    80001ca8:	fdf44783          	lbu	a5,-33(s0)
    80001cac:	2781                	sext.w	a5,a5
    80001cae:	85be                	mv	a1,a5
    80001cb0:	00003517          	auipc	a0,0x3
    80001cb4:	6a050513          	addi	a0,a0,1696 # 80005350 <__rodata_start+0x598>
    80001cb8:	e84fe0ef          	jal	ra,8000033c <log_debug>
    80001cbc:	00003517          	auipc	a0,0x3
    80001cc0:	6b450513          	addi	a0,a0,1716 # 80005370 <__rodata_start+0x5b8>
    80001cc4:	e0afe0ef          	jal	ra,800002ce <log_trace>
    80001cc8:	0001                	nop
    80001cca:	70e2                	ld	ra,56(sp)
    80001ccc:	7442                	ld	s0,48(sp)
    80001cce:	6121                	addi	sp,sp,64
    80001cd0:	8082                	ret

0000000080001cd2 <interrupt_disable>:
    80001cd2:	7179                	addi	sp,sp,-48
    80001cd4:	f406                	sd	ra,40(sp)
    80001cd6:	f022                	sd	s0,32(sp)
    80001cd8:	1800                	addi	s0,sp,48
    80001cda:	87aa                	mv	a5,a0
    80001cdc:	fcf42e23          	sw	a5,-36(s0)
    80001ce0:	fe043423          	sd	zero,-24(s0)
    80001ce4:	fe0403a3          	sb	zero,-25(s0)
    80001ce8:	00003517          	auipc	a0,0x3
    80001cec:	6a850513          	addi	a0,a0,1704 # 80005390 <__rodata_start+0x5d8>
    80001cf0:	ddefe0ef          	jal	ra,800002ce <log_trace>
    80001cf4:	fdc42783          	lw	a5,-36(s0)
    80001cf8:	85be                	mv	a1,a5
    80001cfa:	00003517          	auipc	a0,0x3
    80001cfe:	5d650513          	addi	a0,a0,1494 # 800052d0 <__rodata_start+0x518>
    80001d02:	e3afe0ef          	jal	ra,8000033c <log_debug>
    80001d06:	fdc42783          	lw	a5,-36(s0)
    80001d0a:	86be                	mv	a3,a5
    80001d0c:	6609                	lui	a2,0x2
    80001d0e:	0c0005b7          	lui	a1,0xc000
    80001d12:	00003517          	auipc	a0,0x3
    80001d16:	69e50513          	addi	a0,a0,1694 # 800053b0 <__rodata_start+0x5f8>
    80001d1a:	e22fe0ef          	jal	ra,8000033c <log_debug>
    80001d1e:	fdc42783          	lw	a5,-36(s0)
    80001d22:	0037d79b          	srliw	a5,a5,0x3
    80001d26:	2781                	sext.w	a5,a5
    80001d28:	02079713          	slli	a4,a5,0x20
    80001d2c:	9301                	srli	a4,a4,0x20
    80001d2e:	0c0027b7          	lui	a5,0xc002
    80001d32:	97ba                	add	a5,a5,a4
    80001d34:	fef43423          	sd	a5,-24(s0)
    80001d38:	fe843783          	ld	a5,-24(s0)
    80001d3c:	0007c783          	lbu	a5,0(a5) # c002000 <_free_space+0x40109b8>
    80001d40:	fef403a3          	sb	a5,-25(s0)
    80001d44:	fe744783          	lbu	a5,-25(s0)
    80001d48:	2781                	sext.w	a5,a5
    80001d4a:	863e                	mv	a2,a5
    80001d4c:	fe843583          	ld	a1,-24(s0)
    80001d50:	00003517          	auipc	a0,0x3
    80001d54:	6a850513          	addi	a0,a0,1704 # 800053f8 <__rodata_start+0x640>
    80001d58:	de4fe0ef          	jal	ra,8000033c <log_debug>
    80001d5c:	fdc42783          	lw	a5,-36(s0)
    80001d60:	8b9d                	andi	a5,a5,7
    80001d62:	2781                	sext.w	a5,a5
    80001d64:	4705                	li	a4,1
    80001d66:	00f717bb          	sllw	a5,a4,a5
    80001d6a:	2781                	sext.w	a5,a5
    80001d6c:	0187979b          	slliw	a5,a5,0x18
    80001d70:	4187d79b          	sraiw	a5,a5,0x18
    80001d74:	fff7c793          	not	a5,a5
    80001d78:	0187971b          	slliw	a4,a5,0x18
    80001d7c:	4187571b          	sraiw	a4,a4,0x18
    80001d80:	fe740783          	lb	a5,-25(s0)
    80001d84:	8ff9                	and	a5,a5,a4
    80001d86:	0187979b          	slliw	a5,a5,0x18
    80001d8a:	4187d79b          	sraiw	a5,a5,0x18
    80001d8e:	fef40323          	sb	a5,-26(s0)
    80001d92:	fe843783          	ld	a5,-24(s0)
    80001d96:	fe644703          	lbu	a4,-26(s0)
    80001d9a:	00e78023          	sb	a4,0(a5)
    80001d9e:	0000c717          	auipc	a4,0xc
    80001da2:	29270713          	addi	a4,a4,658 # 8000e030 <hart0_interrupt_matrix>
    80001da6:	fdc46783          	lwu	a5,-36(s0)
    80001daa:	0792                	slli	a5,a5,0x4
    80001dac:	97ba                	add	a5,a5,a4
    80001dae:	0007a423          	sw	zero,8(a5)
    80001db2:	0000c717          	auipc	a4,0xc
    80001db6:	27e70713          	addi	a4,a4,638 # 8000e030 <hart0_interrupt_matrix>
    80001dba:	fdc46783          	lwu	a5,-36(s0)
    80001dbe:	0792                	slli	a5,a5,0x4
    80001dc0:	97ba                	add	a5,a5,a4
    80001dc2:	4798                	lw	a4,8(a5)
    80001dc4:	fdc42783          	lw	a5,-36(s0)
    80001dc8:	863a                	mv	a2,a4
    80001dca:	85be                	mv	a1,a5
    80001dcc:	00003517          	auipc	a0,0x3
    80001dd0:	2c450513          	addi	a0,a0,708 # 80005090 <__rodata_start+0x2d8>
    80001dd4:	d68fe0ef          	jal	ra,8000033c <log_debug>
    80001dd8:	00003517          	auipc	a0,0x3
    80001ddc:	65850513          	addi	a0,a0,1624 # 80005430 <__rodata_start+0x678>
    80001de0:	ceefe0ef          	jal	ra,800002ce <log_trace>
    80001de4:	0001                	nop
    80001de6:	70a2                	ld	ra,40(sp)
    80001de8:	7402                	ld	s0,32(sp)
    80001dea:	6145                	addi	sp,sp,48
    80001dec:	8082                	ret

0000000080001dee <set_interrupt_threshold>:
    80001dee:	7179                	addi	sp,sp,-48
    80001df0:	f406                	sd	ra,40(sp)
    80001df2:	f022                	sd	s0,32(sp)
    80001df4:	1800                	addi	s0,sp,48
    80001df6:	87aa                	mv	a5,a0
    80001df8:	fcf42e23          	sw	a5,-36(s0)
    80001dfc:	00003517          	auipc	a0,0x3
    80001e00:	65450513          	addi	a0,a0,1620 # 80005450 <__rodata_start+0x698>
    80001e04:	ccafe0ef          	jal	ra,800002ce <log_trace>
    80001e08:	fe043423          	sd	zero,-24(s0)
    80001e0c:	0c0107b7          	lui	a5,0xc010
    80001e10:	fef43423          	sd	a5,-24(s0)
    80001e14:	fe843783          	ld	a5,-24(s0)
    80001e18:	fdc42703          	lw	a4,-36(s0)
    80001e1c:	c398                	sw	a4,0(a5)
    80001e1e:	fe843783          	ld	a5,-24(s0)
    80001e22:	439c                	lw	a5,0(a5)
    80001e24:	85be                	mv	a1,a5
    80001e26:	00003517          	auipc	a0,0x3
    80001e2a:	65250513          	addi	a0,a0,1618 # 80005478 <__rodata_start+0x6c0>
    80001e2e:	d0efe0ef          	jal	ra,8000033c <log_debug>
    80001e32:	00003517          	auipc	a0,0x3
    80001e36:	66650513          	addi	a0,a0,1638 # 80005498 <__rodata_start+0x6e0>
    80001e3a:	c94fe0ef          	jal	ra,800002ce <log_trace>
    80001e3e:	0001                	nop
    80001e40:	70a2                	ld	ra,40(sp)
    80001e42:	7402                	ld	s0,32(sp)
    80001e44:	6145                	addi	sp,sp,48
    80001e46:	8082                	ret

0000000080001e48 <set_interrupt_priority>:
    80001e48:	7179                	addi	sp,sp,-48
    80001e4a:	f406                	sd	ra,40(sp)
    80001e4c:	f022                	sd	s0,32(sp)
    80001e4e:	1800                	addi	s0,sp,48
    80001e50:	87aa                	mv	a5,a0
    80001e52:	872e                	mv	a4,a1
    80001e54:	fcf42e23          	sw	a5,-36(s0)
    80001e58:	87ba                	mv	a5,a4
    80001e5a:	fcf42c23          	sw	a5,-40(s0)
    80001e5e:	fdc42783          	lw	a5,-36(s0)
    80001e62:	85be                	mv	a1,a5
    80001e64:	00003517          	auipc	a0,0x3
    80001e68:	65450513          	addi	a0,a0,1620 # 800054b8 <__rodata_start+0x700>
    80001e6c:	c62fe0ef          	jal	ra,800002ce <log_trace>
    80001e70:	fd842783          	lw	a5,-40(s0)
    80001e74:	0027979b          	slliw	a5,a5,0x2
    80001e78:	2781                	sext.w	a5,a5
    80001e7a:	02079713          	slli	a4,a5,0x20
    80001e7e:	9301                	srli	a4,a4,0x20
    80001e80:	0c0007b7          	lui	a5,0xc000
    80001e84:	97ba                	add	a5,a5,a4
    80001e86:	fef43423          	sd	a5,-24(s0)
    80001e8a:	fe843583          	ld	a1,-24(s0)
    80001e8e:	00003517          	auipc	a0,0x3
    80001e92:	65250513          	addi	a0,a0,1618 # 800054e0 <__rodata_start+0x728>
    80001e96:	ca6fe0ef          	jal	ra,8000033c <log_debug>
    80001e9a:	fe843783          	ld	a5,-24(s0)
    80001e9e:	439c                	lw	a5,0(a5)
    80001ea0:	85be                	mv	a1,a5
    80001ea2:	00003517          	auipc	a0,0x3
    80001ea6:	66650513          	addi	a0,a0,1638 # 80005508 <__rodata_start+0x750>
    80001eaa:	c92fe0ef          	jal	ra,8000033c <log_debug>
    80001eae:	fe843783          	ld	a5,-24(s0)
    80001eb2:	fdc42703          	lw	a4,-36(s0)
    80001eb6:	c398                	sw	a4,0(a5)
    80001eb8:	fe843783          	ld	a5,-24(s0)
    80001ebc:	439c                	lw	a5,0(a5)
    80001ebe:	85be                	mv	a1,a5
    80001ec0:	00003517          	auipc	a0,0x3
    80001ec4:	68050513          	addi	a0,a0,1664 # 80005540 <__rodata_start+0x788>
    80001ec8:	c74fe0ef          	jal	ra,8000033c <log_debug>
    80001ecc:	00003517          	auipc	a0,0x3
    80001ed0:	6a450513          	addi	a0,a0,1700 # 80005570 <__rodata_start+0x7b8>
    80001ed4:	bfafe0ef          	jal	ra,800002ce <log_trace>
    80001ed8:	0001                	nop
    80001eda:	70a2                	ld	ra,40(sp)
    80001edc:	7402                	ld	s0,32(sp)
    80001ede:	6145                	addi	sp,sp,48
    80001ee0:	8082                	ret

0000000080001ee2 <configure_interrupt_pin>:
    80001ee2:	7179                	addi	sp,sp,-48
    80001ee4:	f406                	sd	ra,40(sp)
    80001ee6:	f022                	sd	s0,32(sp)
    80001ee8:	1800                	addi	s0,sp,48
    80001eea:	87aa                	mv	a5,a0
    80001eec:	fcf42e23          	sw	a5,-36(s0)
    80001ef0:	00003517          	auipc	a0,0x3
    80001ef4:	6a050513          	addi	a0,a0,1696 # 80005590 <__rodata_start+0x7d8>
    80001ef8:	bd6fe0ef          	jal	ra,800002ce <log_trace>
    80001efc:	020d0537          	lui	a0,0x20d0
    80001f00:	89dff0ef          	jal	ra,8000179c <read_word>
    80001f04:	87aa                	mv	a5,a0
    80001f06:	fef42623          	sw	a5,-20(s0)
    80001f0a:	fec42783          	lw	a5,-20(s0)
    80001f0e:	85be                	mv	a1,a5
    80001f10:	00003517          	auipc	a0,0x3
    80001f14:	6a850513          	addi	a0,a0,1704 # 800055b8 <__rodata_start+0x800>
    80001f18:	c24fe0ef          	jal	ra,8000033c <log_debug>
    80001f1c:	fdc42783          	lw	a5,-36(s0)
    80001f20:	37e5                	addiw	a5,a5,-7 # bfffff9 <_free_space+0x400e9b1>
    80001f22:	2781                	sext.w	a5,a5
    80001f24:	4705                	li	a4,1
    80001f26:	00f717bb          	sllw	a5,a4,a5
    80001f2a:	2781                	sext.w	a5,a5
    80001f2c:	fff7c793          	not	a5,a5
    80001f30:	2781                	sext.w	a5,a5
    80001f32:	2781                	sext.w	a5,a5
    80001f34:	fec42703          	lw	a4,-20(s0)
    80001f38:	8ff9                	and	a5,a5,a4
    80001f3a:	2781                	sext.w	a5,a5
    80001f3c:	1782                	slli	a5,a5,0x20
    80001f3e:	9381                	srli	a5,a5,0x20
    80001f40:	85be                	mv	a1,a5
    80001f42:	020d0537          	lui	a0,0x20d0
    80001f46:	88fff0ef          	jal	ra,800017d4 <write_word>
    80001f4a:	020d0537          	lui	a0,0x20d0
    80001f4e:	84fff0ef          	jal	ra,8000179c <read_word>
    80001f52:	87aa                	mv	a5,a0
    80001f54:	85be                	mv	a1,a5
    80001f56:	00003517          	auipc	a0,0x3
    80001f5a:	68a50513          	addi	a0,a0,1674 # 800055e0 <__rodata_start+0x828>
    80001f5e:	bdefe0ef          	jal	ra,8000033c <log_debug>
    80001f62:	00003517          	auipc	a0,0x3
    80001f66:	6ae50513          	addi	a0,a0,1710 # 80005610 <__rodata_start+0x858>
    80001f6a:	b64fe0ef          	jal	ra,800002ce <log_trace>
    80001f6e:	0001                	nop
    80001f70:	70a2                	ld	ra,40(sp)
    80001f72:	7402                	ld	s0,32(sp)
    80001f74:	6145                	addi	sp,sp,48
    80001f76:	8082                	ret

0000000080001f78 <plic_init>:
    80001f78:	1101                	addi	sp,sp,-32
    80001f7a:	ec06                	sd	ra,24(sp)
    80001f7c:	e822                	sd	s0,16(sp)
    80001f7e:	1000                	addi	s0,sp,32
    80001f80:	fe042623          	sw	zero,-20(s0)
    80001f84:	00003517          	auipc	a0,0x3
    80001f88:	6ac50513          	addi	a0,a0,1708 # 80005630 <__rodata_start+0x878>
    80001f8c:	b42fe0ef          	jal	ra,800002ce <log_trace>
    80001f90:	2b818793          	addi	a5,gp,696 # 800069b0 <mcause_interrupt_table>
    80001f94:	00000717          	auipc	a4,0x0
    80001f98:	af470713          	addi	a4,a4,-1292 # 80001a88 <mach_plic_handler>
    80001f9c:	efb8                	sd	a4,88(a5)
    80001f9e:	45ad                	li	a1,11
    80001fa0:	00003517          	auipc	a0,0x3
    80001fa4:	6a850513          	addi	a0,a0,1704 # 80005648 <__rodata_start+0x890>
    80001fa8:	b94fe0ef          	jal	ra,8000033c <log_debug>
    80001fac:	0000c797          	auipc	a5,0xc
    80001fb0:	08478793          	addi	a5,a5,132 # 8000e030 <hart0_interrupt_matrix>
    80001fb4:	0007a423          	sw	zero,8(a5)
    80001fb8:	0000c797          	auipc	a5,0xc
    80001fbc:	07878793          	addi	a5,a5,120 # 8000e030 <hart0_interrupt_matrix>
    80001fc0:	0007a023          	sw	zero,0(a5)
    80001fc4:	0000c797          	auipc	a5,0xc
    80001fc8:	06c78793          	addi	a5,a5,108 # 8000e030 <hart0_interrupt_matrix>
    80001fcc:	0007a223          	sw	zero,4(a5)
    80001fd0:	0000c797          	auipc	a5,0xc
    80001fd4:	06078793          	addi	a5,a5,96 # 8000e030 <hart0_interrupt_matrix>
    80001fd8:	0007a623          	sw	zero,12(a5)
    80001fdc:	4785                	li	a5,1
    80001fde:	fef42623          	sw	a5,-20(s0)
    80001fe2:	a8c5                	j	800020d2 <plic_init+0x15a>
    80001fe4:	0000c717          	auipc	a4,0xc
    80001fe8:	04c70713          	addi	a4,a4,76 # 8000e030 <hart0_interrupt_matrix>
    80001fec:	fec46783          	lwu	a5,-20(s0)
    80001ff0:	0792                	slli	a5,a5,0x4
    80001ff2:	97ba                	add	a5,a5,a4
    80001ff4:	0007a423          	sw	zero,8(a5)
    80001ff8:	0000c717          	auipc	a4,0xc
    80001ffc:	03870713          	addi	a4,a4,56 # 8000e030 <hart0_interrupt_matrix>
    80002000:	fec46783          	lwu	a5,-20(s0)
    80002004:	0792                	slli	a5,a5,0x4
    80002006:	97ba                	add	a5,a5,a4
    80002008:	fec42703          	lw	a4,-20(s0)
    8000200c:	c398                	sw	a4,0(a5)
    8000200e:	0000c717          	auipc	a4,0xc
    80002012:	02270713          	addi	a4,a4,34 # 8000e030 <hart0_interrupt_matrix>
    80002016:	fec46783          	lwu	a5,-20(s0)
    8000201a:	0792                	slli	a5,a5,0x4
    8000201c:	97ba                	add	a5,a5,a4
    8000201e:	4709                	li	a4,2
    80002020:	c3d8                	sw	a4,4(a5)
    80002022:	0000c717          	auipc	a4,0xc
    80002026:	00e70713          	addi	a4,a4,14 # 8000e030 <hart0_interrupt_matrix>
    8000202a:	fec46783          	lwu	a5,-20(s0)
    8000202e:	0792                	slli	a5,a5,0x4
    80002030:	97ba                	add	a5,a5,a4
    80002032:	0007a623          	sw	zero,12(a5)
    80002036:	00003517          	auipc	a0,0x3
    8000203a:	64250513          	addi	a0,a0,1602 # 80005678 <__rodata_start+0x8c0>
    8000203e:	afefe0ef          	jal	ra,8000033c <log_debug>
    80002042:	fec42783          	lw	a5,-20(s0)
    80002046:	853e                	mv	a0,a5
    80002048:	c8bff0ef          	jal	ra,80001cd2 <interrupt_disable>
    8000204c:	0000c717          	auipc	a4,0xc
    80002050:	f1470713          	addi	a4,a4,-236 # 8000df60 <isr_table>
    80002054:	fec46783          	lwu	a5,-20(s0)
    80002058:	078e                	slli	a5,a5,0x3
    8000205a:	97ba                	add	a5,a5,a4
    8000205c:	00000717          	auipc	a4,0x0
    80002060:	b1270713          	addi	a4,a4,-1262 # 80001b6e <isr_default>
    80002064:	e398                	sd	a4,0(a5)
    80002066:	fec42783          	lw	a5,-20(s0)
    8000206a:	85be                	mv	a1,a5
    8000206c:	4509                	li	a0,2
    8000206e:	ddbff0ef          	jal	ra,80001e48 <set_interrupt_priority>
    80002072:	0000c717          	auipc	a4,0xc
    80002076:	fbe70713          	addi	a4,a4,-66 # 8000e030 <hart0_interrupt_matrix>
    8000207a:	fec46783          	lwu	a5,-20(s0)
    8000207e:	0792                	slli	a5,a5,0x4
    80002080:	97ba                	add	a5,a5,a4
    80002082:	438c                	lw	a1,0(a5)
    80002084:	0000c717          	auipc	a4,0xc
    80002088:	fac70713          	addi	a4,a4,-84 # 8000e030 <hart0_interrupt_matrix>
    8000208c:	fec46783          	lwu	a5,-20(s0)
    80002090:	0792                	slli	a5,a5,0x4
    80002092:	97ba                	add	a5,a5,a4
    80002094:	4790                	lw	a2,8(a5)
    80002096:	0000c717          	auipc	a4,0xc
    8000209a:	f9a70713          	addi	a4,a4,-102 # 8000e030 <hart0_interrupt_matrix>
    8000209e:	fec46783          	lwu	a5,-20(s0)
    800020a2:	0792                	slli	a5,a5,0x4
    800020a4:	97ba                	add	a5,a5,a4
    800020a6:	43d4                	lw	a3,4(a5)
    800020a8:	0000c717          	auipc	a4,0xc
    800020ac:	f8870713          	addi	a4,a4,-120 # 8000e030 <hart0_interrupt_matrix>
    800020b0:	fec46783          	lwu	a5,-20(s0)
    800020b4:	0792                	slli	a5,a5,0x4
    800020b6:	97ba                	add	a5,a5,a4
    800020b8:	47dc                	lw	a5,12(a5)
    800020ba:	873e                	mv	a4,a5
    800020bc:	00003517          	auipc	a0,0x3
    800020c0:	5f450513          	addi	a0,a0,1524 # 800056b0 <__rodata_start+0x8f8>
    800020c4:	a78fe0ef          	jal	ra,8000033c <log_debug>
    800020c8:	fec42783          	lw	a5,-20(s0)
    800020cc:	2785                	addiw	a5,a5,1
    800020ce:	fef42623          	sw	a5,-20(s0)
    800020d2:	fec42783          	lw	a5,-20(s0)
    800020d6:	0007871b          	sext.w	a4,a5
    800020da:	47e5                	li	a5,25
    800020dc:	f0e7f4e3          	bgeu	a5,a4,80001fe4 <plic_init+0x6c>
    800020e0:	4505                	li	a0,1
    800020e2:	d0dff0ef          	jal	ra,80001dee <set_interrupt_threshold>
    800020e6:	00003517          	auipc	a0,0x3
    800020ea:	65a50513          	addi	a0,a0,1626 # 80005740 <__rodata_start+0x988>
    800020ee:	9e0fe0ef          	jal	ra,800002ce <log_trace>
    800020f2:	0001                	nop
    800020f4:	60e2                	ld	ra,24(sp)
    800020f6:	6442                	ld	s0,16(sp)
    800020f8:	6105                	addi	sp,sp,32
    800020fa:	8082                	ret

00000000800020fc <configure_interrupt>:
    800020fc:	1101                	addi	sp,sp,-32
    800020fe:	ec06                	sd	ra,24(sp)
    80002100:	e822                	sd	s0,16(sp)
    80002102:	1000                	addi	s0,sp,32
    80002104:	87aa                	mv	a5,a0
    80002106:	fef42623          	sw	a5,-20(s0)
    8000210a:	00003517          	auipc	a0,0x3
    8000210e:	64e50513          	addi	a0,a0,1614 # 80005758 <__rodata_start+0x9a0>
    80002112:	9bcfe0ef          	jal	ra,800002ce <log_trace>
    80002116:	fec42783          	lw	a5,-20(s0)
    8000211a:	0007871b          	sext.w	a4,a5
    8000211e:	4799                	li	a5,6
    80002120:	00e7fe63          	bgeu	a5,a4,8000213c <configure_interrupt+0x40>
    80002124:	fec42783          	lw	a5,-20(s0)
    80002128:	0007871b          	sext.w	a4,a5
    8000212c:	47d5                	li	a5,21
    8000212e:	00e7e763          	bltu	a5,a4,8000213c <configure_interrupt+0x40>
    80002132:	fec42783          	lw	a5,-20(s0)
    80002136:	853e                	mv	a0,a5
    80002138:	dabff0ef          	jal	ra,80001ee2 <configure_interrupt_pin>
    8000213c:	fec42783          	lw	a5,-20(s0)
    80002140:	853e                	mv	a0,a5
    80002142:	ab1ff0ef          	jal	ra,80001bf2 <interrupt_enable>
    80002146:	00003517          	auipc	a0,0x3
    8000214a:	63250513          	addi	a0,a0,1586 # 80005778 <__rodata_start+0x9c0>
    8000214e:	980fe0ef          	jal	ra,800002ce <log_trace>
    80002152:	0001                	nop
    80002154:	60e2                	ld	ra,24(sp)
    80002156:	6442                	ld	s0,16(sp)
    80002158:	6105                	addi	sp,sp,32
    8000215a:	8082                	ret

000000008000215c <set_pwm_period_register>:
    8000215c:	7179                	addi	sp,sp,-48
    8000215e:	f406                	sd	ra,40(sp)
    80002160:	f022                	sd	s0,32(sp)
    80002162:	1800                	addi	s0,sp,48
    80002164:	87aa                	mv	a5,a0
    80002166:	872e                	mv	a4,a1
    80002168:	fcf42e23          	sw	a5,-36(s0)
    8000216c:	87ba                	mv	a5,a4
    8000216e:	fcf42c23          	sw	a5,-40(s0)
    80002172:	fd842783          	lw	a5,-40(s0)
    80002176:	0007871b          	sext.w	a4,a5
    8000217a:	67c1                	lui	a5,0x10
    8000217c:	00f74d63          	blt	a4,a5,80002196 <set_pwm_period_register+0x3a>
    80002180:	67c1                	lui	a5,0x10
    80002182:	fff78593          	addi	a1,a5,-1 # ffff <_tbss_end+0xffff>
    80002186:	00003517          	auipc	a0,0x3
    8000218a:	61250513          	addi	a0,a0,1554 # 80005798 <__rodata_start+0x9e0>
    8000218e:	a1cfe0ef          	jal	ra,800003aa <log_error>
    80002192:	4781                	li	a5,0
    80002194:	a091                	j	800021d8 <set_pwm_period_register+0x7c>
    80002196:	fdc42783          	lw	a5,-36(s0)
    8000219a:	3007879b          	addiw	a5,a5,768
    8000219e:	2781                	sext.w	a5,a5
    800021a0:	0087979b          	slliw	a5,a5,0x8
    800021a4:	2781                	sext.w	a5,a5
    800021a6:	fef43423          	sd	a5,-24(s0)
    800021aa:	fd842783          	lw	a5,-40(s0)
    800021ae:	0107971b          	slliw	a4,a5,0x10
    800021b2:	4107571b          	sraiw	a4,a4,0x10
    800021b6:	fe843783          	ld	a5,-24(s0)
    800021ba:	00e79023          	sh	a4,0(a5)
    800021be:	fd842703          	lw	a4,-40(s0)
    800021c2:	fdc42783          	lw	a5,-36(s0)
    800021c6:	863a                	mv	a2,a4
    800021c8:	85be                	mv	a1,a5
    800021ca:	00003517          	auipc	a0,0x3
    800021ce:	60650513          	addi	a0,a0,1542 # 800057d0 <__rodata_start+0xa18>
    800021d2:	920fe0ef          	jal	ra,800002f2 <log_info>
    800021d6:	4785                	li	a5,1
    800021d8:	853e                	mv	a0,a5
    800021da:	70a2                	ld	ra,40(sp)
    800021dc:	7402                	ld	s0,32(sp)
    800021de:	6145                	addi	sp,sp,48
    800021e0:	8082                	ret

00000000800021e2 <set_pwm_duty_register>:
    800021e2:	7179                	addi	sp,sp,-48
    800021e4:	f406                	sd	ra,40(sp)
    800021e6:	f022                	sd	s0,32(sp)
    800021e8:	1800                	addi	s0,sp,48
    800021ea:	87aa                	mv	a5,a0
    800021ec:	872e                	mv	a4,a1
    800021ee:	fcf42e23          	sw	a5,-36(s0)
    800021f2:	87ba                	mv	a5,a4
    800021f4:	fcf42c23          	sw	a5,-40(s0)
    800021f8:	fd842783          	lw	a5,-40(s0)
    800021fc:	0007871b          	sext.w	a4,a5
    80002200:	67c1                	lui	a5,0x10
    80002202:	00f74d63          	blt	a4,a5,8000221c <set_pwm_duty_register+0x3a>
    80002206:	67c1                	lui	a5,0x10
    80002208:	fff78593          	addi	a1,a5,-1 # ffff <_tbss_end+0xffff>
    8000220c:	00003517          	auipc	a0,0x3
    80002210:	5f450513          	addi	a0,a0,1524 # 80005800 <__rodata_start+0xa48>
    80002214:	996fe0ef          	jal	ra,800003aa <log_error>
    80002218:	4781                	li	a5,0
    8000221a:	a0a1                	j	80002262 <set_pwm_duty_register+0x80>
    8000221c:	fdc42783          	lw	a5,-36(s0)
    80002220:	3007879b          	addiw	a5,a5,768
    80002224:	2781                	sext.w	a5,a5
    80002226:	0087979b          	slliw	a5,a5,0x8
    8000222a:	2781                	sext.w	a5,a5
    8000222c:	2791                	addiw	a5,a5,4
    8000222e:	2781                	sext.w	a5,a5
    80002230:	fef43423          	sd	a5,-24(s0)
    80002234:	fd842783          	lw	a5,-40(s0)
    80002238:	0107971b          	slliw	a4,a5,0x10
    8000223c:	4107571b          	sraiw	a4,a4,0x10
    80002240:	fe843783          	ld	a5,-24(s0)
    80002244:	00e79023          	sh	a4,0(a5)
    80002248:	fd842703          	lw	a4,-40(s0)
    8000224c:	fdc42783          	lw	a5,-36(s0)
    80002250:	863a                	mv	a2,a4
    80002252:	85be                	mv	a1,a5
    80002254:	00003517          	auipc	a0,0x3
    80002258:	5dc50513          	addi	a0,a0,1500 # 80005830 <__rodata_start+0xa78>
    8000225c:	896fe0ef          	jal	ra,800002f2 <log_info>
    80002260:	4785                	li	a5,1
    80002262:	853e                	mv	a0,a5
    80002264:	70a2                	ld	ra,40(sp)
    80002266:	7402                	ld	s0,32(sp)
    80002268:	6145                	addi	sp,sp,48
    8000226a:	8082                	ret

000000008000226c <set_pwm_control_register>:
    8000226c:	7179                	addi	sp,sp,-48
    8000226e:	f406                	sd	ra,40(sp)
    80002270:	f022                	sd	s0,32(sp)
    80002272:	1800                	addi	s0,sp,48
    80002274:	87aa                	mv	a5,a0
    80002276:	872e                	mv	a4,a1
    80002278:	fcf42e23          	sw	a5,-36(s0)
    8000227c:	87ba                	mv	a5,a4
    8000227e:	fcf42c23          	sw	a5,-40(s0)
    80002282:	fd842783          	lw	a5,-40(s0)
    80002286:	0007871b          	sext.w	a4,a5
    8000228a:	0ff00793          	li	a5,255
    8000228e:	00e7dc63          	bge	a5,a4,800022a6 <set_pwm_control_register+0x3a>
    80002292:	0ff00593          	li	a1,255
    80002296:	00003517          	auipc	a0,0x3
    8000229a:	5ca50513          	addi	a0,a0,1482 # 80005860 <__rodata_start+0xaa8>
    8000229e:	90cfe0ef          	jal	ra,800003aa <log_error>
    800022a2:	4781                	li	a5,0
    800022a4:	a091                	j	800022e8 <set_pwm_control_register+0x7c>
    800022a6:	fdc42783          	lw	a5,-36(s0)
    800022aa:	3007879b          	addiw	a5,a5,768
    800022ae:	2781                	sext.w	a5,a5
    800022b0:	0087979b          	slliw	a5,a5,0x8
    800022b4:	2781                	sext.w	a5,a5
    800022b6:	27a1                	addiw	a5,a5,8
    800022b8:	2781                	sext.w	a5,a5
    800022ba:	fef43423          	sd	a5,-24(s0)
    800022be:	fd842783          	lw	a5,-40(s0)
    800022c2:	0ff7f713          	zext.b	a4,a5
    800022c6:	fe843783          	ld	a5,-24(s0)
    800022ca:	00e78023          	sb	a4,0(a5)
    800022ce:	fd842703          	lw	a4,-40(s0)
    800022d2:	fdc42783          	lw	a5,-36(s0)
    800022d6:	863a                	mv	a2,a4
    800022d8:	85be                	mv	a1,a5
    800022da:	00003517          	auipc	a0,0x3
    800022de:	5be50513          	addi	a0,a0,1470 # 80005898 <__rodata_start+0xae0>
    800022e2:	810fe0ef          	jal	ra,800002f2 <log_info>
    800022e6:	4785                	li	a5,1
    800022e8:	853e                	mv	a0,a5
    800022ea:	70a2                	ld	ra,40(sp)
    800022ec:	7402                	ld	s0,32(sp)
    800022ee:	6145                	addi	sp,sp,48
    800022f0:	8082                	ret

00000000800022f2 <pwm_check_continuous_mode>:
    800022f2:	7179                	addi	sp,sp,-48
    800022f4:	f406                	sd	ra,40(sp)
    800022f6:	f022                	sd	s0,32(sp)
    800022f8:	1800                	addi	s0,sp,48
    800022fa:	87aa                	mv	a5,a0
    800022fc:	fcf42e23          	sw	a5,-36(s0)
    80002300:	fdc42783          	lw	a5,-36(s0)
    80002304:	3007879b          	addiw	a5,a5,768
    80002308:	2781                	sext.w	a5,a5
    8000230a:	0087979b          	slliw	a5,a5,0x8
    8000230e:	2781                	sext.w	a5,a5
    80002310:	27a1                	addiw	a5,a5,8
    80002312:	2781                	sext.w	a5,a5
    80002314:	fef43423          	sd	a5,-24(s0)
    80002318:	fe843783          	ld	a5,-24(s0)
    8000231c:	0007c783          	lbu	a5,0(a5)
    80002320:	0ff7f793          	zext.b	a5,a5
    80002324:	2781                	sext.w	a5,a5
    80002326:	8ba1                	andi	a5,a5,8
    80002328:	fef42223          	sw	a5,-28(s0)
    8000232c:	fe442783          	lw	a5,-28(s0)
    80002330:	4037d79b          	sraiw	a5,a5,0x3
    80002334:	2781                	sext.w	a5,a5
    80002336:	85be                	mv	a1,a5
    80002338:	00003517          	auipc	a0,0x3
    8000233c:	59850513          	addi	a0,a0,1432 # 800058d0 <__rodata_start+0xb18>
    80002340:	fb3fd0ef          	jal	ra,800002f2 <log_info>
    80002344:	fe442783          	lw	a5,-28(s0)
    80002348:	4037d79b          	sraiw	a5,a5,0x3
    8000234c:	2781                	sext.w	a5,a5
    8000234e:	873e                	mv	a4,a5
    80002350:	4785                	li	a5,1
    80002352:	00f71463          	bne	a4,a5,8000235a <pwm_check_continuous_mode+0x68>
    80002356:	4785                	li	a5,1
    80002358:	a011                	j	8000235c <pwm_check_continuous_mode+0x6a>
    8000235a:	4781                	li	a5,0
    8000235c:	853e                	mv	a0,a5
    8000235e:	70a2                	ld	ra,40(sp)
    80002360:	7402                	ld	s0,32(sp)
    80002362:	6145                	addi	sp,sp,48
    80002364:	8082                	ret

0000000080002366 <set_pwm_clock_register>:
    80002366:	7179                	addi	sp,sp,-48
    80002368:	f406                	sd	ra,40(sp)
    8000236a:	f022                	sd	s0,32(sp)
    8000236c:	1800                	addi	s0,sp,48
    8000236e:	87aa                	mv	a5,a0
    80002370:	872e                	mv	a4,a1
    80002372:	fcf42e23          	sw	a5,-36(s0)
    80002376:	87ba                	mv	a5,a4
    80002378:	fcf42c23          	sw	a5,-40(s0)
    8000237c:	fd842783          	lw	a5,-40(s0)
    80002380:	0007871b          	sext.w	a4,a5
    80002384:	67c1                	lui	a5,0x10
    80002386:	00f74d63          	blt	a4,a5,800023a0 <set_pwm_clock_register+0x3a>
    8000238a:	67c1                	lui	a5,0x10
    8000238c:	fff78593          	addi	a1,a5,-1 # ffff <_tbss_end+0xffff>
    80002390:	00003517          	auipc	a0,0x3
    80002394:	56850513          	addi	a0,a0,1384 # 800058f8 <__rodata_start+0xb40>
    80002398:	812fe0ef          	jal	ra,800003aa <log_error>
    8000239c:	4781                	li	a5,0
    8000239e:	a805                	j	800023ce <set_pwm_clock_register+0x68>
    800023a0:	fdc42783          	lw	a5,-36(s0)
    800023a4:	3007879b          	addiw	a5,a5,768
    800023a8:	2781                	sext.w	a5,a5
    800023aa:	0087979b          	slliw	a5,a5,0x8
    800023ae:	2781                	sext.w	a5,a5
    800023b0:	27b1                	addiw	a5,a5,12
    800023b2:	2781                	sext.w	a5,a5
    800023b4:	fef43423          	sd	a5,-24(s0)
    800023b8:	fd842783          	lw	a5,-40(s0)
    800023bc:	0107971b          	slliw	a4,a5,0x10
    800023c0:	4107571b          	sraiw	a4,a4,0x10
    800023c4:	fe843783          	ld	a5,-24(s0)
    800023c8:	00e79023          	sh	a4,0(a5)
    800023cc:	4785                	li	a5,1
    800023ce:	853e                	mv	a0,a5
    800023d0:	70a2                	ld	ra,40(sp)
    800023d2:	7402                	ld	s0,32(sp)
    800023d4:	6145                	addi	sp,sp,48
    800023d6:	8082                	ret

00000000800023d8 <pwm_clear_registers>:
    800023d8:	1101                	addi	sp,sp,-32
    800023da:	ec06                	sd	ra,24(sp)
    800023dc:	e822                	sd	s0,16(sp)
    800023de:	1000                	addi	s0,sp,32
    800023e0:	87aa                	mv	a5,a0
    800023e2:	fef42623          	sw	a5,-20(s0)
    800023e6:	fec42783          	lw	a5,-20(s0)
    800023ea:	4581                	li	a1,0
    800023ec:	853e                	mv	a0,a5
    800023ee:	d6fff0ef          	jal	ra,8000215c <set_pwm_period_register>
    800023f2:	fec42783          	lw	a5,-20(s0)
    800023f6:	4581                	li	a1,0
    800023f8:	853e                	mv	a0,a5
    800023fa:	de9ff0ef          	jal	ra,800021e2 <set_pwm_duty_register>
    800023fe:	fec42783          	lw	a5,-20(s0)
    80002402:	4581                	li	a1,0
    80002404:	853e                	mv	a0,a5
    80002406:	e67ff0ef          	jal	ra,8000226c <set_pwm_control_register>
    8000240a:	fec42783          	lw	a5,-20(s0)
    8000240e:	4581                	li	a1,0
    80002410:	853e                	mv	a0,a5
    80002412:	f55ff0ef          	jal	ra,80002366 <set_pwm_clock_register>
    80002416:	fec42783          	lw	a5,-20(s0)
    8000241a:	85be                	mv	a1,a5
    8000241c:	00003517          	auipc	a0,0x3
    80002420:	51450513          	addi	a0,a0,1300 # 80005930 <__rodata_start+0xb78>
    80002424:	ecffd0ef          	jal	ra,800002f2 <log_info>
    80002428:	0001                	nop
    8000242a:	60e2                	ld	ra,24(sp)
    8000242c:	6442                	ld	s0,16(sp)
    8000242e:	6105                	addi	sp,sp,32
    80002430:	8082                	ret

0000000080002432 <pwm_init>:
    80002432:	1101                	addi	sp,sp,-32
    80002434:	ec06                	sd	ra,24(sp)
    80002436:	e822                	sd	s0,16(sp)
    80002438:	1000                	addi	s0,sp,32
    8000243a:	fe042623          	sw	zero,-20(s0)
    8000243e:	a819                	j	80002454 <pwm_init+0x22>
    80002440:	fec42783          	lw	a5,-20(s0)
    80002444:	853e                	mv	a0,a5
    80002446:	f93ff0ef          	jal	ra,800023d8 <pwm_clear_registers>
    8000244a:	fec42783          	lw	a5,-20(s0)
    8000244e:	2785                	addiw	a5,a5,1
    80002450:	fef42623          	sw	a5,-20(s0)
    80002454:	fec42783          	lw	a5,-20(s0)
    80002458:	0007871b          	sext.w	a4,a5
    8000245c:	4791                	li	a5,4
    8000245e:	fee7d1e3          	bge	a5,a4,80002440 <pwm_init+0xe>
    80002462:	00003517          	auipc	a0,0x3
    80002466:	4fe50513          	addi	a0,a0,1278 # 80005960 <__rodata_start+0xba8>
    8000246a:	e89fd0ef          	jal	ra,800002f2 <log_info>
    8000246e:	0001                	nop
    80002470:	60e2                	ld	ra,24(sp)
    80002472:	6442                	ld	s0,16(sp)
    80002474:	6105                	addi	sp,sp,32
    80002476:	8082                	ret

0000000080002478 <configure_control_register_mode>:
    80002478:	7179                	addi	sp,sp,-48
    8000247a:	f406                	sd	ra,40(sp)
    8000247c:	f022                	sd	s0,32(sp)
    8000247e:	1800                	addi	s0,sp,48
    80002480:	87aa                	mv	a5,a0
    80002482:	fcf42e23          	sw	a5,-36(s0)
    80002486:	fe042623          	sw	zero,-20(s0)
    8000248a:	fdc42783          	lw	a5,-36(s0)
    8000248e:	2781                	sext.w	a5,a5
    80002490:	e79d                	bnez	a5,800024be <configure_control_register_mode+0x46>
    80002492:	00003517          	auipc	a0,0x3
    80002496:	4fe50513          	addi	a0,a0,1278 # 80005990 <__rodata_start+0xbd8>
    8000249a:	e59fd0ef          	jal	ra,800002f2 <log_info>
    8000249e:	fec42783          	lw	a5,-20(s0)
    800024a2:	2789                	addiw	a5,a5,2
    800024a4:	fef42623          	sw	a5,-20(s0)
    800024a8:	fec42783          	lw	a5,-20(s0)
    800024ac:	2791                	addiw	a5,a5,4
    800024ae:	fef42623          	sw	a5,-20(s0)
    800024b2:	fec42783          	lw	a5,-20(s0)
    800024b6:	27c1                	addiw	a5,a5,16
    800024b8:	fef42623          	sw	a5,-20(s0)
    800024bc:	a899                	j	80002512 <configure_control_register_mode+0x9a>
    800024be:	fdc42783          	lw	a5,-36(s0)
    800024c2:	0007871b          	sext.w	a4,a5
    800024c6:	4785                	li	a5,1
    800024c8:	00f71e63          	bne	a4,a5,800024e4 <configure_control_register_mode+0x6c>
    800024cc:	00003517          	auipc	a0,0x3
    800024d0:	4ec50513          	addi	a0,a0,1260 # 800059b8 <__rodata_start+0xc00>
    800024d4:	e1ffd0ef          	jal	ra,800002f2 <log_info>
    800024d8:	fec42783          	lw	a5,-20(s0)
    800024dc:	2791                	addiw	a5,a5,4
    800024de:	fef42623          	sw	a5,-20(s0)
    800024e2:	a805                	j	80002512 <configure_control_register_mode+0x9a>
    800024e4:	fdc42783          	lw	a5,-36(s0)
    800024e8:	0007871b          	sext.w	a4,a5
    800024ec:	4789                	li	a5,2
    800024ee:	02f71263          	bne	a4,a5,80002512 <configure_control_register_mode+0x9a>
    800024f2:	00003517          	auipc	a0,0x3
    800024f6:	4f650513          	addi	a0,a0,1270 # 800059e8 <__rodata_start+0xc30>
    800024fa:	df9fd0ef          	jal	ra,800002f2 <log_info>
    800024fe:	fec42783          	lw	a5,-20(s0)
    80002502:	2791                	addiw	a5,a5,4
    80002504:	fef42623          	sw	a5,-20(s0)
    80002508:	fec42783          	lw	a5,-20(s0)
    8000250c:	27a1                	addiw	a5,a5,8
    8000250e:	fef42623          	sw	a5,-20(s0)
    80002512:	fec42783          	lw	a5,-20(s0)
    80002516:	853e                	mv	a0,a5
    80002518:	70a2                	ld	ra,40(sp)
    8000251a:	7402                	ld	s0,32(sp)
    8000251c:	6145                	addi	sp,sp,48
    8000251e:	8082                	ret

0000000080002520 <pwm_start>:
    80002520:	7179                	addi	sp,sp,-48
    80002522:	f406                	sd	ra,40(sp)
    80002524:	f022                	sd	s0,32(sp)
    80002526:	1800                	addi	s0,sp,48
    80002528:	87aa                	mv	a5,a0
    8000252a:	872e                	mv	a4,a1
    8000252c:	fcf42e23          	sw	a5,-36(s0)
    80002530:	87ba                	mv	a5,a4
    80002532:	fcf42c23          	sw	a5,-40(s0)
    80002536:	fd842783          	lw	a5,-40(s0)
    8000253a:	853e                	mv	a0,a5
    8000253c:	f3dff0ef          	jal	ra,80002478 <configure_control_register_mode>
    80002540:	87aa                	mv	a5,a0
    80002542:	fef42623          	sw	a5,-20(s0)
    80002546:	fec42703          	lw	a4,-20(s0)
    8000254a:	fdc42783          	lw	a5,-36(s0)
    8000254e:	85ba                	mv	a1,a4
    80002550:	853e                	mv	a0,a5
    80002552:	d1bff0ef          	jal	ra,8000226c <set_pwm_control_register>
    80002556:	87aa                	mv	a5,a0
    80002558:	cb91                	beqz	a5,8000256c <pwm_start+0x4c>
    8000255a:	fdc42783          	lw	a5,-36(s0)
    8000255e:	85be                	mv	a1,a5
    80002560:	00003517          	auipc	a0,0x3
    80002564:	4c050513          	addi	a0,a0,1216 # 80005a20 <__rodata_start+0xc68>
    80002568:	d8bfd0ef          	jal	ra,800002f2 <log_info>
    8000256c:	fec42703          	lw	a4,-20(s0)
    80002570:	fdc42783          	lw	a5,-36(s0)
    80002574:	85ba                	mv	a1,a4
    80002576:	853e                	mv	a0,a5
    80002578:	cf5ff0ef          	jal	ra,8000226c <set_pwm_control_register>
    8000257c:	87aa                	mv	a5,a0
    8000257e:	eb91                	bnez	a5,80002592 <pwm_start+0x72>
    80002580:	fdc42783          	lw	a5,-36(s0)
    80002584:	85be                	mv	a1,a5
    80002586:	00003517          	auipc	a0,0x3
    8000258a:	4c250513          	addi	a0,a0,1218 # 80005a48 <__rodata_start+0xc90>
    8000258e:	e1dfd0ef          	jal	ra,800003aa <log_error>
    80002592:	0001                	nop
    80002594:	70a2                	ld	ra,40(sp)
    80002596:	7402                	ld	s0,32(sp)
    80002598:	6145                	addi	sp,sp,48
    8000259a:	8082                	ret

000000008000259c <pwm_use_external_clock>:
    8000259c:	7179                	addi	sp,sp,-48
    8000259e:	f422                	sd	s0,40(sp)
    800025a0:	1800                	addi	s0,sp,48
    800025a2:	87aa                	mv	a5,a0
    800025a4:	872e                	mv	a4,a1
    800025a6:	fcf42e23          	sw	a5,-36(s0)
    800025aa:	87ba                	mv	a5,a4
    800025ac:	fcf40da3          	sb	a5,-37(s0)
    800025b0:	fdc42783          	lw	a5,-36(s0)
    800025b4:	3007879b          	addiw	a5,a5,768
    800025b8:	2781                	sext.w	a5,a5
    800025ba:	0087979b          	slliw	a5,a5,0x8
    800025be:	2781                	sext.w	a5,a5
    800025c0:	27a1                	addiw	a5,a5,8
    800025c2:	2781                	sext.w	a5,a5
    800025c4:	fef43423          	sd	a5,-24(s0)
    800025c8:	fdb44783          	lbu	a5,-37(s0)
    800025cc:	0ff7f793          	zext.b	a5,a5
    800025d0:	c799                	beqz	a5,800025de <pwm_use_external_clock+0x42>
    800025d2:	fe843783          	ld	a5,-24(s0)
    800025d6:	0785                	addi	a5,a5,1
    800025d8:	fef43423          	sd	a5,-24(s0)
    800025dc:	a809                	j	800025ee <pwm_use_external_clock+0x52>
    800025de:	fe843783          	ld	a5,-24(s0)
    800025e2:	c791                	beqz	a5,800025ee <pwm_use_external_clock+0x52>
    800025e4:	fe843783          	ld	a5,-24(s0)
    800025e8:	17fd                	addi	a5,a5,-1
    800025ea:	fef43423          	sd	a5,-24(s0)
    800025ee:	0001                	nop
    800025f0:	7422                	ld	s0,40(sp)
    800025f2:	6145                	addi	sp,sp,48
    800025f4:	8082                	ret

00000000800025f6 <pwm_set_clock>:
    800025f6:	1101                	addi	sp,sp,-32
    800025f8:	ec06                	sd	ra,24(sp)
    800025fa:	e822                	sd	s0,16(sp)
    800025fc:	1000                	addi	s0,sp,32
    800025fe:	87aa                	mv	a5,a0
    80002600:	872e                	mv	a4,a1
    80002602:	fef42623          	sw	a5,-20(s0)
    80002606:	87ba                	mv	a5,a4
    80002608:	fef42423          	sw	a5,-24(s0)
    8000260c:	fe842703          	lw	a4,-24(s0)
    80002610:	fec42783          	lw	a5,-20(s0)
    80002614:	85ba                	mv	a1,a4
    80002616:	853e                	mv	a0,a5
    80002618:	d4fff0ef          	jal	ra,80002366 <set_pwm_clock_register>
    8000261c:	87aa                	mv	a5,a0
    8000261e:	e799                	bnez	a5,8000262c <pwm_set_clock+0x36>
    80002620:	00003517          	auipc	a0,0x3
    80002624:	45050513          	addi	a0,a0,1104 # 80005a70 <__rodata_start+0xcb8>
    80002628:	d83fd0ef          	jal	ra,800003aa <log_error>
    8000262c:	0001                	nop
    8000262e:	60e2                	ld	ra,24(sp)
    80002630:	6442                	ld	s0,16(sp)
    80002632:	6105                	addi	sp,sp,32
    80002634:	8082                	ret

0000000080002636 <pwm_set_duty_cycle>:
    80002636:	1101                	addi	sp,sp,-32
    80002638:	ec06                	sd	ra,24(sp)
    8000263a:	e822                	sd	s0,16(sp)
    8000263c:	1000                	addi	s0,sp,32
    8000263e:	87aa                	mv	a5,a0
    80002640:	872e                	mv	a4,a1
    80002642:	fef42623          	sw	a5,-20(s0)
    80002646:	87ba                	mv	a5,a4
    80002648:	fef42423          	sw	a5,-24(s0)
    8000264c:	fe842703          	lw	a4,-24(s0)
    80002650:	fec42783          	lw	a5,-20(s0)
    80002654:	85ba                	mv	a1,a4
    80002656:	853e                	mv	a0,a5
    80002658:	b8bff0ef          	jal	ra,800021e2 <set_pwm_duty_register>
    8000265c:	87aa                	mv	a5,a0
    8000265e:	e799                	bnez	a5,8000266c <pwm_set_duty_cycle+0x36>
    80002660:	00003517          	auipc	a0,0x3
    80002664:	43850513          	addi	a0,a0,1080 # 80005a98 <__rodata_start+0xce0>
    80002668:	d43fd0ef          	jal	ra,800003aa <log_error>
    8000266c:	0001                	nop
    8000266e:	60e2                	ld	ra,24(sp)
    80002670:	6442                	ld	s0,16(sp)
    80002672:	6105                	addi	sp,sp,32
    80002674:	8082                	ret

0000000080002676 <pwm_set_periodic_cycle>:
    80002676:	1101                	addi	sp,sp,-32
    80002678:	ec06                	sd	ra,24(sp)
    8000267a:	e822                	sd	s0,16(sp)
    8000267c:	1000                	addi	s0,sp,32
    8000267e:	87aa                	mv	a5,a0
    80002680:	872e                	mv	a4,a1
    80002682:	fef42623          	sw	a5,-20(s0)
    80002686:	87ba                	mv	a5,a4
    80002688:	fef42423          	sw	a5,-24(s0)
    8000268c:	fe842703          	lw	a4,-24(s0)
    80002690:	fec42783          	lw	a5,-20(s0)
    80002694:	85ba                	mv	a1,a4
    80002696:	853e                	mv	a0,a5
    80002698:	ac5ff0ef          	jal	ra,8000215c <set_pwm_period_register>
    8000269c:	87aa                	mv	a5,a0
    8000269e:	e799                	bnez	a5,800026ac <pwm_set_periodic_cycle+0x36>
    800026a0:	00003517          	auipc	a0,0x3
    800026a4:	42050513          	addi	a0,a0,1056 # 80005ac0 <__rodata_start+0xd08>
    800026a8:	d03fd0ef          	jal	ra,800003aa <log_error>
    800026ac:	0001                	nop
    800026ae:	60e2                	ld	ra,24(sp)
    800026b0:	6442                	ld	s0,16(sp)
    800026b2:	6105                	addi	sp,sp,32
    800026b4:	8082                	ret

00000000800026b6 <pwm_configure>:
    800026b6:	7179                	addi	sp,sp,-48
    800026b8:	f406                	sd	ra,40(sp)
    800026ba:	f022                	sd	s0,32(sp)
    800026bc:	1800                	addi	s0,sp,48
    800026be:	87aa                	mv	a5,a0
    800026c0:	fef42623          	sw	a5,-20(s0)
    800026c4:	87ae                	mv	a5,a1
    800026c6:	fef42423          	sw	a5,-24(s0)
    800026ca:	87b2                	mv	a5,a2
    800026cc:	fef42223          	sw	a5,-28(s0)
    800026d0:	87b6                	mv	a5,a3
    800026d2:	fef42023          	sw	a5,-32(s0)
    800026d6:	87ba                	mv	a5,a4
    800026d8:	fcf40fa3          	sb	a5,-33(s0)
    800026dc:	fe442703          	lw	a4,-28(s0)
    800026e0:	fec42783          	lw	a5,-20(s0)
    800026e4:	85ba                	mv	a1,a4
    800026e6:	853e                	mv	a0,a5
    800026e8:	f8fff0ef          	jal	ra,80002676 <pwm_set_periodic_cycle>
    800026ec:	fe042703          	lw	a4,-32(s0)
    800026f0:	fec42783          	lw	a5,-20(s0)
    800026f4:	85ba                	mv	a1,a4
    800026f6:	853e                	mv	a0,a5
    800026f8:	f3fff0ef          	jal	ra,80002636 <pwm_set_duty_cycle>
    800026fc:	fe842703          	lw	a4,-24(s0)
    80002700:	fec42783          	lw	a5,-20(s0)
    80002704:	85ba                	mv	a1,a4
    80002706:	853e                	mv	a0,a5
    80002708:	eefff0ef          	jal	ra,800025f6 <pwm_set_clock>
    8000270c:	fdf44703          	lbu	a4,-33(s0)
    80002710:	fec42783          	lw	a5,-20(s0)
    80002714:	85ba                	mv	a1,a4
    80002716:	853e                	mv	a0,a5
    80002718:	e85ff0ef          	jal	ra,8000259c <pwm_use_external_clock>
    8000271c:	fec42783          	lw	a5,-20(s0)
    80002720:	85be                	mv	a1,a5
    80002722:	00003517          	auipc	a0,0x3
    80002726:	3c650513          	addi	a0,a0,966 # 80005ae8 <__rodata_start+0xd30>
    8000272a:	bc9fd0ef          	jal	ra,800002f2 <log_info>
    8000272e:	0001                	nop
    80002730:	70a2                	ld	ra,40(sp)
    80002732:	7402                	ld	s0,32(sp)
    80002734:	6145                	addi	sp,sp,48
    80002736:	8082                	ret

0000000080002738 <pwm_stop>:
    80002738:	1101                	addi	sp,sp,-32
    8000273a:	ec06                	sd	ra,24(sp)
    8000273c:	e822                	sd	s0,16(sp)
    8000273e:	1000                	addi	s0,sp,32
    80002740:	87aa                	mv	a5,a0
    80002742:	fef42623          	sw	a5,-20(s0)
    80002746:	fec42783          	lw	a5,-20(s0)
    8000274a:	4581                	li	a1,0
    8000274c:	853e                	mv	a0,a5
    8000274e:	b1fff0ef          	jal	ra,8000226c <set_pwm_control_register>
    80002752:	fec42783          	lw	a5,-20(s0)
    80002756:	85be                	mv	a1,a5
    80002758:	00003517          	auipc	a0,0x3
    8000275c:	3b050513          	addi	a0,a0,944 # 80005b08 <__rodata_start+0xd50>
    80002760:	b93fd0ef          	jal	ra,800002f2 <log_info>
    80002764:	0001                	nop
    80002766:	60e2                	ld	ra,24(sp)
    80002768:	6442                	ld	s0,16(sp)
    8000276a:	6105                	addi	sp,sp,32
    8000276c:	8082                	ret

000000008000276e <show_register_values>:
    8000276e:	7139                	addi	sp,sp,-64
    80002770:	fc06                	sd	ra,56(sp)
    80002772:	f822                	sd	s0,48(sp)
    80002774:	0080                	addi	s0,sp,64
    80002776:	87aa                	mv	a5,a0
    80002778:	fcf42623          	sw	a5,-52(s0)
    8000277c:	fcc42783          	lw	a5,-52(s0)
    80002780:	3007879b          	addiw	a5,a5,768
    80002784:	2781                	sext.w	a5,a5
    80002786:	0087979b          	slliw	a5,a5,0x8
    8000278a:	2781                	sext.w	a5,a5
    8000278c:	fef43423          	sd	a5,-24(s0)
    80002790:	fcc42783          	lw	a5,-52(s0)
    80002794:	3007879b          	addiw	a5,a5,768
    80002798:	2781                	sext.w	a5,a5
    8000279a:	0087979b          	slliw	a5,a5,0x8
    8000279e:	2781                	sext.w	a5,a5
    800027a0:	2791                	addiw	a5,a5,4
    800027a2:	2781                	sext.w	a5,a5
    800027a4:	fef43023          	sd	a5,-32(s0)
    800027a8:	fcc42783          	lw	a5,-52(s0)
    800027ac:	3007879b          	addiw	a5,a5,768
    800027b0:	2781                	sext.w	a5,a5
    800027b2:	0087979b          	slliw	a5,a5,0x8
    800027b6:	2781                	sext.w	a5,a5
    800027b8:	27a1                	addiw	a5,a5,8
    800027ba:	2781                	sext.w	a5,a5
    800027bc:	fcf43c23          	sd	a5,-40(s0)
    800027c0:	fcc42783          	lw	a5,-52(s0)
    800027c4:	3007879b          	addiw	a5,a5,768
    800027c8:	2781                	sext.w	a5,a5
    800027ca:	0087979b          	slliw	a5,a5,0x8
    800027ce:	2781                	sext.w	a5,a5
    800027d0:	27b1                	addiw	a5,a5,12
    800027d2:	2781                	sext.w	a5,a5
    800027d4:	fcf43823          	sd	a5,-48(s0)
    800027d8:	fe843783          	ld	a5,-24(s0)
    800027dc:	0007d783          	lhu	a5,0(a5)
    800027e0:	17c2                	slli	a5,a5,0x30
    800027e2:	93c1                	srli	a5,a5,0x30
    800027e4:	2781                	sext.w	a5,a5
    800027e6:	85be                	mv	a1,a5
    800027e8:	00003517          	auipc	a0,0x3
    800027ec:	34850513          	addi	a0,a0,840 # 80005b30 <__rodata_start+0xd78>
    800027f0:	b03fd0ef          	jal	ra,800002f2 <log_info>
    800027f4:	fe043783          	ld	a5,-32(s0)
    800027f8:	0007d783          	lhu	a5,0(a5)
    800027fc:	17c2                	slli	a5,a5,0x30
    800027fe:	93c1                	srli	a5,a5,0x30
    80002800:	2781                	sext.w	a5,a5
    80002802:	85be                	mv	a1,a5
    80002804:	00003517          	auipc	a0,0x3
    80002808:	35450513          	addi	a0,a0,852 # 80005b58 <__rodata_start+0xda0>
    8000280c:	ae7fd0ef          	jal	ra,800002f2 <log_info>
    80002810:	fd843783          	ld	a5,-40(s0)
    80002814:	0007c783          	lbu	a5,0(a5)
    80002818:	0ff7f793          	zext.b	a5,a5
    8000281c:	2781                	sext.w	a5,a5
    8000281e:	85be                	mv	a1,a5
    80002820:	00003517          	auipc	a0,0x3
    80002824:	36050513          	addi	a0,a0,864 # 80005b80 <__rodata_start+0xdc8>
    80002828:	acbfd0ef          	jal	ra,800002f2 <log_info>
    8000282c:	fd043783          	ld	a5,-48(s0)
    80002830:	0007d783          	lhu	a5,0(a5)
    80002834:	17c2                	slli	a5,a5,0x30
    80002836:	93c1                	srli	a5,a5,0x30
    80002838:	2781                	sext.w	a5,a5
    8000283a:	85be                	mv	a1,a5
    8000283c:	00003517          	auipc	a0,0x3
    80002840:	36c50513          	addi	a0,a0,876 # 80005ba8 <__rodata_start+0xdf0>
    80002844:	aaffd0ef          	jal	ra,800002f2 <log_info>
    80002848:	0001                	nop
    8000284a:	70e2                	ld	ra,56(sp)
    8000284c:	7442                	ld	s0,48(sp)
    8000284e:	6121                	addi	sp,sp,64
    80002850:	8082                	ret

0000000080002852 <md5Init>:
    80002852:	1101                	addi	sp,sp,-32
    80002854:	ec22                	sd	s0,24(sp)
    80002856:	1000                	addi	s0,sp,32
    80002858:	fea43423          	sd	a0,-24(s0)
    8000285c:	fe843783          	ld	a5,-24(s0)
    80002860:	0007b023          	sd	zero,0(a5)
    80002864:	fe843783          	ld	a5,-24(s0)
    80002868:	67452737          	lui	a4,0x67452
    8000286c:	30170713          	addi	a4,a4,769 # 67452301 <_free_space+0x5f460cb9>
    80002870:	c798                	sw	a4,8(a5)
    80002872:	fe843783          	ld	a5,-24(s0)
    80002876:	efcdb737          	lui	a4,0xefcdb
    8000287a:	b8970713          	addi	a4,a4,-1143 # ffffffffefcdab89 <__stack_pointer$+0xffffffff67cdaf89>
    8000287e:	c7d8                	sw	a4,12(a5)
    80002880:	fe843783          	ld	a5,-24(s0)
    80002884:	98bae737          	lui	a4,0x98bae
    80002888:	cfe70713          	addi	a4,a4,-770 # ffffffff98badcfe <__stack_pointer$+0xffffffff10bae0fe>
    8000288c:	cb98                	sw	a4,16(a5)
    8000288e:	fe843783          	ld	a5,-24(s0)
    80002892:	10325737          	lui	a4,0x10325
    80002896:	47670713          	addi	a4,a4,1142 # 10325476 <_free_space+0x8333e2e>
    8000289a:	cbd8                	sw	a4,20(a5)
    8000289c:	0001                	nop
    8000289e:	6462                	ld	s0,24(sp)
    800028a0:	6105                	addi	sp,sp,32
    800028a2:	8082                	ret

00000000800028a4 <md5Update>:
    800028a4:	7119                	addi	sp,sp,-128
    800028a6:	fc86                	sd	ra,120(sp)
    800028a8:	f8a2                	sd	s0,112(sp)
    800028aa:	0100                	addi	s0,sp,128
    800028ac:	f8a43c23          	sd	a0,-104(s0)
    800028b0:	f8b43823          	sd	a1,-112(s0)
    800028b4:	f8c43423          	sd	a2,-120(s0)
    800028b8:	f9843783          	ld	a5,-104(s0)
    800028bc:	639c                	ld	a5,0(a5)
    800028be:	2781                	sext.w	a5,a5
    800028c0:	03f7f793          	andi	a5,a5,63
    800028c4:	fef42623          	sw	a5,-20(s0)
    800028c8:	f9843783          	ld	a5,-104(s0)
    800028cc:	6398                	ld	a4,0(a5)
    800028ce:	f8843783          	ld	a5,-120(s0)
    800028d2:	973e                	add	a4,a4,a5
    800028d4:	f9843783          	ld	a5,-104(s0)
    800028d8:	e398                	sd	a4,0(a5)
    800028da:	fe042423          	sw	zero,-24(s0)
    800028de:	a20d                	j	80002a00 <md5Update+0x15c>
    800028e0:	fe846783          	lwu	a5,-24(s0)
    800028e4:	f9043703          	ld	a4,-112(s0)
    800028e8:	973e                	add	a4,a4,a5
    800028ea:	fec42783          	lw	a5,-20(s0)
    800028ee:	0017869b          	addiw	a3,a5,1
    800028f2:	fed42623          	sw	a3,-20(s0)
    800028f6:	00074703          	lbu	a4,0(a4)
    800028fa:	f9843683          	ld	a3,-104(s0)
    800028fe:	1782                	slli	a5,a5,0x20
    80002900:	9381                	srli	a5,a5,0x20
    80002902:	97b6                	add	a5,a5,a3
    80002904:	00e78c23          	sb	a4,24(a5)
    80002908:	fec42783          	lw	a5,-20(s0)
    8000290c:	03f7f793          	andi	a5,a5,63
    80002910:	2781                	sext.w	a5,a5
    80002912:	e3f5                	bnez	a5,800029f6 <md5Update+0x152>
    80002914:	fe042223          	sw	zero,-28(s0)
    80002918:	a86d                	j	800029d2 <md5Update+0x12e>
    8000291a:	fe442783          	lw	a5,-28(s0)
    8000291e:	0027979b          	slliw	a5,a5,0x2
    80002922:	2781                	sext.w	a5,a5
    80002924:	278d                	addiw	a5,a5,3
    80002926:	2781                	sext.w	a5,a5
    80002928:	f9843703          	ld	a4,-104(s0)
    8000292c:	1782                	slli	a5,a5,0x20
    8000292e:	9381                	srli	a5,a5,0x20
    80002930:	97ba                	add	a5,a5,a4
    80002932:	0187c783          	lbu	a5,24(a5)
    80002936:	2781                	sext.w	a5,a5
    80002938:	0187979b          	slliw	a5,a5,0x18
    8000293c:	0007869b          	sext.w	a3,a5
    80002940:	fe442783          	lw	a5,-28(s0)
    80002944:	0027979b          	slliw	a5,a5,0x2
    80002948:	2781                	sext.w	a5,a5
    8000294a:	2789                	addiw	a5,a5,2
    8000294c:	2781                	sext.w	a5,a5
    8000294e:	f9843703          	ld	a4,-104(s0)
    80002952:	1782                	slli	a5,a5,0x20
    80002954:	9381                	srli	a5,a5,0x20
    80002956:	97ba                	add	a5,a5,a4
    80002958:	0187c783          	lbu	a5,24(a5)
    8000295c:	2781                	sext.w	a5,a5
    8000295e:	0107979b          	slliw	a5,a5,0x10
    80002962:	2781                	sext.w	a5,a5
    80002964:	8736                	mv	a4,a3
    80002966:	8fd9                	or	a5,a5,a4
    80002968:	0007869b          	sext.w	a3,a5
    8000296c:	fe442783          	lw	a5,-28(s0)
    80002970:	0027979b          	slliw	a5,a5,0x2
    80002974:	2781                	sext.w	a5,a5
    80002976:	2785                	addiw	a5,a5,1
    80002978:	2781                	sext.w	a5,a5
    8000297a:	f9843703          	ld	a4,-104(s0)
    8000297e:	1782                	slli	a5,a5,0x20
    80002980:	9381                	srli	a5,a5,0x20
    80002982:	97ba                	add	a5,a5,a4
    80002984:	0187c783          	lbu	a5,24(a5)
    80002988:	2781                	sext.w	a5,a5
    8000298a:	0087979b          	slliw	a5,a5,0x8
    8000298e:	2781                	sext.w	a5,a5
    80002990:	8736                	mv	a4,a3
    80002992:	8fd9                	or	a5,a5,a4
    80002994:	0007869b          	sext.w	a3,a5
    80002998:	fe442783          	lw	a5,-28(s0)
    8000299c:	0027979b          	slliw	a5,a5,0x2
    800029a0:	2781                	sext.w	a5,a5
    800029a2:	f9843703          	ld	a4,-104(s0)
    800029a6:	1782                	slli	a5,a5,0x20
    800029a8:	9381                	srli	a5,a5,0x20
    800029aa:	97ba                	add	a5,a5,a4
    800029ac:	0187c783          	lbu	a5,24(a5)
    800029b0:	2781                	sext.w	a5,a5
    800029b2:	8736                	mv	a4,a3
    800029b4:	8fd9                	or	a5,a5,a4
    800029b6:	0007871b          	sext.w	a4,a5
    800029ba:	fe446783          	lwu	a5,-28(s0)
    800029be:	078a                	slli	a5,a5,0x2
    800029c0:	17c1                	addi	a5,a5,-16
    800029c2:	97a2                	add	a5,a5,s0
    800029c4:	fae7a823          	sw	a4,-80(a5)
    800029c8:	fe442783          	lw	a5,-28(s0)
    800029cc:	2785                	addiw	a5,a5,1
    800029ce:	fef42223          	sw	a5,-28(s0)
    800029d2:	fe442783          	lw	a5,-28(s0)
    800029d6:	0007871b          	sext.w	a4,a5
    800029da:	47bd                	li	a5,15
    800029dc:	f2e7ffe3          	bgeu	a5,a4,8000291a <md5Update+0x76>
    800029e0:	f9843783          	ld	a5,-104(s0)
    800029e4:	07a1                	addi	a5,a5,8
    800029e6:	fa040713          	addi	a4,s0,-96
    800029ea:	85ba                	mv	a1,a4
    800029ec:	853e                	mv	a0,a5
    800029ee:	28e000ef          	jal	ra,80002c7c <md5Step>
    800029f2:	fe042623          	sw	zero,-20(s0)
    800029f6:	fe842783          	lw	a5,-24(s0)
    800029fa:	2785                	addiw	a5,a5,1
    800029fc:	fef42423          	sw	a5,-24(s0)
    80002a00:	fe846783          	lwu	a5,-24(s0)
    80002a04:	f8843703          	ld	a4,-120(s0)
    80002a08:	ece7ece3          	bltu	a5,a4,800028e0 <md5Update+0x3c>
    80002a0c:	0001                	nop
    80002a0e:	0001                	nop
    80002a10:	70e6                	ld	ra,120(sp)
    80002a12:	7446                	ld	s0,112(sp)
    80002a14:	6109                	addi	sp,sp,128
    80002a16:	8082                	ret

0000000080002a18 <md5Finalize>:
    80002a18:	7159                	addi	sp,sp,-112
    80002a1a:	f486                	sd	ra,104(sp)
    80002a1c:	f0a2                	sd	s0,96(sp)
    80002a1e:	1880                	addi	s0,sp,112
    80002a20:	f8a43c23          	sd	a0,-104(s0)
    80002a24:	f9843783          	ld	a5,-104(s0)
    80002a28:	639c                	ld	a5,0(a5)
    80002a2a:	2781                	sext.w	a5,a5
    80002a2c:	03f7f793          	andi	a5,a5,63
    80002a30:	fef42223          	sw	a5,-28(s0)
    80002a34:	fe442783          	lw	a5,-28(s0)
    80002a38:	0007871b          	sext.w	a4,a5
    80002a3c:	03700793          	li	a5,55
    80002a40:	00e7e963          	bltu	a5,a4,80002a52 <md5Finalize+0x3a>
    80002a44:	03800793          	li	a5,56
    80002a48:	fe442703          	lw	a4,-28(s0)
    80002a4c:	9f99                	subw	a5,a5,a4
    80002a4e:	2781                	sext.w	a5,a5
    80002a50:	a039                	j	80002a5e <md5Finalize+0x46>
    80002a52:	07800793          	li	a5,120
    80002a56:	fe442703          	lw	a4,-28(s0)
    80002a5a:	9f99                	subw	a5,a5,a4
    80002a5c:	2781                	sext.w	a5,a5
    80002a5e:	fef42023          	sw	a5,-32(s0)
    80002a62:	fe046783          	lwu	a5,-32(s0)
    80002a66:	863e                	mv	a2,a5
    80002a68:	a7818593          	addi	a1,gp,-1416 # 80006170 <PADDING>
    80002a6c:	f9843503          	ld	a0,-104(s0)
    80002a70:	e35ff0ef          	jal	ra,800028a4 <md5Update>
    80002a74:	f9843783          	ld	a5,-104(s0)
    80002a78:	6398                	ld	a4,0(a5)
    80002a7a:	fe046783          	lwu	a5,-32(s0)
    80002a7e:	8f1d                	sub	a4,a4,a5
    80002a80:	f9843783          	ld	a5,-104(s0)
    80002a84:	e398                	sd	a4,0(a5)
    80002a86:	fe042623          	sw	zero,-20(s0)
    80002a8a:	a86d                	j	80002b44 <md5Finalize+0x12c>
    80002a8c:	fec42783          	lw	a5,-20(s0)
    80002a90:	0027979b          	slliw	a5,a5,0x2
    80002a94:	2781                	sext.w	a5,a5
    80002a96:	278d                	addiw	a5,a5,3
    80002a98:	2781                	sext.w	a5,a5
    80002a9a:	f9843703          	ld	a4,-104(s0)
    80002a9e:	1782                	slli	a5,a5,0x20
    80002aa0:	9381                	srli	a5,a5,0x20
    80002aa2:	97ba                	add	a5,a5,a4
    80002aa4:	0187c783          	lbu	a5,24(a5)
    80002aa8:	2781                	sext.w	a5,a5
    80002aaa:	0187979b          	slliw	a5,a5,0x18
    80002aae:	0007869b          	sext.w	a3,a5
    80002ab2:	fec42783          	lw	a5,-20(s0)
    80002ab6:	0027979b          	slliw	a5,a5,0x2
    80002aba:	2781                	sext.w	a5,a5
    80002abc:	2789                	addiw	a5,a5,2
    80002abe:	2781                	sext.w	a5,a5
    80002ac0:	f9843703          	ld	a4,-104(s0)
    80002ac4:	1782                	slli	a5,a5,0x20
    80002ac6:	9381                	srli	a5,a5,0x20
    80002ac8:	97ba                	add	a5,a5,a4
    80002aca:	0187c783          	lbu	a5,24(a5)
    80002ace:	2781                	sext.w	a5,a5
    80002ad0:	0107979b          	slliw	a5,a5,0x10
    80002ad4:	2781                	sext.w	a5,a5
    80002ad6:	8736                	mv	a4,a3
    80002ad8:	8fd9                	or	a5,a5,a4
    80002ada:	0007869b          	sext.w	a3,a5
    80002ade:	fec42783          	lw	a5,-20(s0)
    80002ae2:	0027979b          	slliw	a5,a5,0x2
    80002ae6:	2781                	sext.w	a5,a5
    80002ae8:	2785                	addiw	a5,a5,1
    80002aea:	2781                	sext.w	a5,a5
    80002aec:	f9843703          	ld	a4,-104(s0)
    80002af0:	1782                	slli	a5,a5,0x20
    80002af2:	9381                	srli	a5,a5,0x20
    80002af4:	97ba                	add	a5,a5,a4
    80002af6:	0187c783          	lbu	a5,24(a5)
    80002afa:	2781                	sext.w	a5,a5
    80002afc:	0087979b          	slliw	a5,a5,0x8
    80002b00:	2781                	sext.w	a5,a5
    80002b02:	8736                	mv	a4,a3
    80002b04:	8fd9                	or	a5,a5,a4
    80002b06:	0007869b          	sext.w	a3,a5
    80002b0a:	fec42783          	lw	a5,-20(s0)
    80002b0e:	0027979b          	slliw	a5,a5,0x2
    80002b12:	2781                	sext.w	a5,a5
    80002b14:	f9843703          	ld	a4,-104(s0)
    80002b18:	1782                	slli	a5,a5,0x20
    80002b1a:	9381                	srli	a5,a5,0x20
    80002b1c:	97ba                	add	a5,a5,a4
    80002b1e:	0187c783          	lbu	a5,24(a5)
    80002b22:	2781                	sext.w	a5,a5
    80002b24:	8736                	mv	a4,a3
    80002b26:	8fd9                	or	a5,a5,a4
    80002b28:	0007871b          	sext.w	a4,a5
    80002b2c:	fec46783          	lwu	a5,-20(s0)
    80002b30:	078a                	slli	a5,a5,0x2
    80002b32:	17c1                	addi	a5,a5,-16
    80002b34:	97a2                	add	a5,a5,s0
    80002b36:	fae7a823          	sw	a4,-80(a5)
    80002b3a:	fec42783          	lw	a5,-20(s0)
    80002b3e:	2785                	addiw	a5,a5,1
    80002b40:	fef42623          	sw	a5,-20(s0)
    80002b44:	fec42783          	lw	a5,-20(s0)
    80002b48:	0007871b          	sext.w	a4,a5
    80002b4c:	47b5                	li	a5,13
    80002b4e:	f2e7ffe3          	bgeu	a5,a4,80002a8c <md5Finalize+0x74>
    80002b52:	f9843783          	ld	a5,-104(s0)
    80002b56:	639c                	ld	a5,0(a5)
    80002b58:	2781                	sext.w	a5,a5
    80002b5a:	0037979b          	slliw	a5,a5,0x3
    80002b5e:	2781                	sext.w	a5,a5
    80002b60:	fcf42c23          	sw	a5,-40(s0)
    80002b64:	f9843783          	ld	a5,-104(s0)
    80002b68:	639c                	ld	a5,0(a5)
    80002b6a:	078e                	slli	a5,a5,0x3
    80002b6c:	9381                	srli	a5,a5,0x20
    80002b6e:	2781                	sext.w	a5,a5
    80002b70:	fcf42e23          	sw	a5,-36(s0)
    80002b74:	f9843783          	ld	a5,-104(s0)
    80002b78:	07a1                	addi	a5,a5,8
    80002b7a:	fa040713          	addi	a4,s0,-96
    80002b7e:	85ba                	mv	a1,a4
    80002b80:	853e                	mv	a0,a5
    80002b82:	0fa000ef          	jal	ra,80002c7c <md5Step>
    80002b86:	fe042423          	sw	zero,-24(s0)
    80002b8a:	a8e1                	j	80002c62 <md5Finalize+0x24a>
    80002b8c:	f9843703          	ld	a4,-104(s0)
    80002b90:	fe846783          	lwu	a5,-24(s0)
    80002b94:	078a                	slli	a5,a5,0x2
    80002b96:	97ba                	add	a5,a5,a4
    80002b98:	4798                	lw	a4,8(a5)
    80002b9a:	fe842783          	lw	a5,-24(s0)
    80002b9e:	0027979b          	slliw	a5,a5,0x2
    80002ba2:	2781                	sext.w	a5,a5
    80002ba4:	0ff77713          	zext.b	a4,a4
    80002ba8:	f9843683          	ld	a3,-104(s0)
    80002bac:	1782                	slli	a5,a5,0x20
    80002bae:	9381                	srli	a5,a5,0x20
    80002bb0:	97b6                	add	a5,a5,a3
    80002bb2:	04e78c23          	sb	a4,88(a5)
    80002bb6:	f9843703          	ld	a4,-104(s0)
    80002bba:	fe846783          	lwu	a5,-24(s0)
    80002bbe:	078a                	slli	a5,a5,0x2
    80002bc0:	97ba                	add	a5,a5,a4
    80002bc2:	479c                	lw	a5,8(a5)
    80002bc4:	0087d79b          	srliw	a5,a5,0x8
    80002bc8:	0007871b          	sext.w	a4,a5
    80002bcc:	fe842783          	lw	a5,-24(s0)
    80002bd0:	0027979b          	slliw	a5,a5,0x2
    80002bd4:	2781                	sext.w	a5,a5
    80002bd6:	2785                	addiw	a5,a5,1
    80002bd8:	2781                	sext.w	a5,a5
    80002bda:	0ff77713          	zext.b	a4,a4
    80002bde:	f9843683          	ld	a3,-104(s0)
    80002be2:	1782                	slli	a5,a5,0x20
    80002be4:	9381                	srli	a5,a5,0x20
    80002be6:	97b6                	add	a5,a5,a3
    80002be8:	04e78c23          	sb	a4,88(a5)
    80002bec:	f9843703          	ld	a4,-104(s0)
    80002bf0:	fe846783          	lwu	a5,-24(s0)
    80002bf4:	078a                	slli	a5,a5,0x2
    80002bf6:	97ba                	add	a5,a5,a4
    80002bf8:	479c                	lw	a5,8(a5)
    80002bfa:	0107d79b          	srliw	a5,a5,0x10
    80002bfe:	0007871b          	sext.w	a4,a5
    80002c02:	fe842783          	lw	a5,-24(s0)
    80002c06:	0027979b          	slliw	a5,a5,0x2
    80002c0a:	2781                	sext.w	a5,a5
    80002c0c:	2789                	addiw	a5,a5,2
    80002c0e:	2781                	sext.w	a5,a5
    80002c10:	0ff77713          	zext.b	a4,a4
    80002c14:	f9843683          	ld	a3,-104(s0)
    80002c18:	1782                	slli	a5,a5,0x20
    80002c1a:	9381                	srli	a5,a5,0x20
    80002c1c:	97b6                	add	a5,a5,a3
    80002c1e:	04e78c23          	sb	a4,88(a5)
    80002c22:	f9843703          	ld	a4,-104(s0)
    80002c26:	fe846783          	lwu	a5,-24(s0)
    80002c2a:	078a                	slli	a5,a5,0x2
    80002c2c:	97ba                	add	a5,a5,a4
    80002c2e:	479c                	lw	a5,8(a5)
    80002c30:	0187d79b          	srliw	a5,a5,0x18
    80002c34:	0007871b          	sext.w	a4,a5
    80002c38:	fe842783          	lw	a5,-24(s0)
    80002c3c:	0027979b          	slliw	a5,a5,0x2
    80002c40:	2781                	sext.w	a5,a5
    80002c42:	278d                	addiw	a5,a5,3
    80002c44:	2781                	sext.w	a5,a5
    80002c46:	0ff77713          	zext.b	a4,a4
    80002c4a:	f9843683          	ld	a3,-104(s0)
    80002c4e:	1782                	slli	a5,a5,0x20
    80002c50:	9381                	srli	a5,a5,0x20
    80002c52:	97b6                	add	a5,a5,a3
    80002c54:	04e78c23          	sb	a4,88(a5)
    80002c58:	fe842783          	lw	a5,-24(s0)
    80002c5c:	2785                	addiw	a5,a5,1
    80002c5e:	fef42423          	sw	a5,-24(s0)
    80002c62:	fe842783          	lw	a5,-24(s0)
    80002c66:	0007871b          	sext.w	a4,a5
    80002c6a:	478d                	li	a5,3
    80002c6c:	f2e7f0e3          	bgeu	a5,a4,80002b8c <md5Finalize+0x174>
    80002c70:	0001                	nop
    80002c72:	0001                	nop
    80002c74:	70a6                	ld	ra,104(sp)
    80002c76:	7406                	ld	s0,96(sp)
    80002c78:	6165                	addi	sp,sp,112
    80002c7a:	8082                	ret

0000000080002c7c <md5Step>:
    80002c7c:	7139                	addi	sp,sp,-64
    80002c7e:	fc06                	sd	ra,56(sp)
    80002c80:	f822                	sd	s0,48(sp)
    80002c82:	0080                	addi	s0,sp,64
    80002c84:	fca43423          	sd	a0,-56(s0)
    80002c88:	fcb43023          	sd	a1,-64(s0)
    80002c8c:	fc843783          	ld	a5,-56(s0)
    80002c90:	439c                	lw	a5,0(a5)
    80002c92:	fef42623          	sw	a5,-20(s0)
    80002c96:	fc843783          	ld	a5,-56(s0)
    80002c9a:	43dc                	lw	a5,4(a5)
    80002c9c:	fef42423          	sw	a5,-24(s0)
    80002ca0:	fc843783          	ld	a5,-56(s0)
    80002ca4:	479c                	lw	a5,8(a5)
    80002ca6:	fef42223          	sw	a5,-28(s0)
    80002caa:	fc843783          	ld	a5,-56(s0)
    80002cae:	47dc                	lw	a5,12(a5)
    80002cb0:	fef42023          	sw	a5,-32(s0)
    80002cb4:	fc042a23          	sw	zero,-44(s0)
    80002cb8:	aa41                	j	80002e48 <md5Step+0x1cc>
    80002cba:	fd442783          	lw	a5,-44(s0)
    80002cbe:	0047d79b          	srliw	a5,a5,0x4
    80002cc2:	2781                	sext.w	a5,a5
    80002cc4:	86be                	mv	a3,a5
    80002cc6:	4709                	li	a4,2
    80002cc8:	08e68763          	beq	a3,a4,80002d56 <md5Step+0xda>
    80002ccc:	86be                	mv	a3,a5
    80002cce:	4709                	li	a4,2
    80002cd0:	0ad76d63          	bltu	a4,a3,80002d8a <md5Step+0x10e>
    80002cd4:	c791                	beqz	a5,80002ce0 <md5Step+0x64>
    80002cd6:	873e                	mv	a4,a5
    80002cd8:	4785                	li	a5,1
    80002cda:	02f70c63          	beq	a4,a5,80002d12 <md5Step+0x96>
    80002cde:	a075                	j	80002d8a <md5Step+0x10e>
    80002ce0:	fe842783          	lw	a5,-24(s0)
    80002ce4:	873e                	mv	a4,a5
    80002ce6:	fe442783          	lw	a5,-28(s0)
    80002cea:	8ff9                	and	a5,a5,a4
    80002cec:	0007871b          	sext.w	a4,a5
    80002cf0:	fe842783          	lw	a5,-24(s0)
    80002cf4:	fff7c793          	not	a5,a5
    80002cf8:	2781                	sext.w	a5,a5
    80002cfa:	fe042683          	lw	a3,-32(s0)
    80002cfe:	8ff5                	and	a5,a5,a3
    80002d00:	2781                	sext.w	a5,a5
    80002d02:	8fd9                	or	a5,a5,a4
    80002d04:	fcf42e23          	sw	a5,-36(s0)
    80002d08:	fd442783          	lw	a5,-44(s0)
    80002d0c:	fcf42c23          	sw	a5,-40(s0)
    80002d10:	a07d                	j	80002dbe <md5Step+0x142>
    80002d12:	fe842783          	lw	a5,-24(s0)
    80002d16:	873e                	mv	a4,a5
    80002d18:	fe042783          	lw	a5,-32(s0)
    80002d1c:	8ff9                	and	a5,a5,a4
    80002d1e:	0007871b          	sext.w	a4,a5
    80002d22:	fe042783          	lw	a5,-32(s0)
    80002d26:	fff7c793          	not	a5,a5
    80002d2a:	2781                	sext.w	a5,a5
    80002d2c:	fe442683          	lw	a3,-28(s0)
    80002d30:	8ff5                	and	a5,a5,a3
    80002d32:	2781                	sext.w	a5,a5
    80002d34:	8fd9                	or	a5,a5,a4
    80002d36:	fcf42e23          	sw	a5,-36(s0)
    80002d3a:	fd442783          	lw	a5,-44(s0)
    80002d3e:	873e                	mv	a4,a5
    80002d40:	87ba                	mv	a5,a4
    80002d42:	0027979b          	slliw	a5,a5,0x2
    80002d46:	9fb9                	addw	a5,a5,a4
    80002d48:	2781                	sext.w	a5,a5
    80002d4a:	2785                	addiw	a5,a5,1
    80002d4c:	2781                	sext.w	a5,a5
    80002d4e:	8bbd                	andi	a5,a5,15
    80002d50:	fcf42c23          	sw	a5,-40(s0)
    80002d54:	a0ad                	j	80002dbe <md5Step+0x142>
    80002d56:	fe842783          	lw	a5,-24(s0)
    80002d5a:	873e                	mv	a4,a5
    80002d5c:	fe442783          	lw	a5,-28(s0)
    80002d60:	8fb9                	xor	a5,a5,a4
    80002d62:	2781                	sext.w	a5,a5
    80002d64:	fe042703          	lw	a4,-32(s0)
    80002d68:	8fb9                	xor	a5,a5,a4
    80002d6a:	fcf42e23          	sw	a5,-36(s0)
    80002d6e:	fd442783          	lw	a5,-44(s0)
    80002d72:	873e                	mv	a4,a5
    80002d74:	87ba                	mv	a5,a4
    80002d76:	0017979b          	slliw	a5,a5,0x1
    80002d7a:	9fb9                	addw	a5,a5,a4
    80002d7c:	2781                	sext.w	a5,a5
    80002d7e:	2795                	addiw	a5,a5,5
    80002d80:	2781                	sext.w	a5,a5
    80002d82:	8bbd                	andi	a5,a5,15
    80002d84:	fcf42c23          	sw	a5,-40(s0)
    80002d88:	a81d                	j	80002dbe <md5Step+0x142>
    80002d8a:	fe042783          	lw	a5,-32(s0)
    80002d8e:	fff7c793          	not	a5,a5
    80002d92:	2781                	sext.w	a5,a5
    80002d94:	fe842703          	lw	a4,-24(s0)
    80002d98:	8fd9                	or	a5,a5,a4
    80002d9a:	2781                	sext.w	a5,a5
    80002d9c:	fe442703          	lw	a4,-28(s0)
    80002da0:	8fb9                	xor	a5,a5,a4
    80002da2:	fcf42e23          	sw	a5,-36(s0)
    80002da6:	fd442783          	lw	a5,-44(s0)
    80002daa:	873e                	mv	a4,a5
    80002dac:	87ba                	mv	a5,a4
    80002dae:	0037979b          	slliw	a5,a5,0x3
    80002db2:	9f99                	subw	a5,a5,a4
    80002db4:	2781                	sext.w	a5,a5
    80002db6:	8bbd                	andi	a5,a5,15
    80002db8:	fcf42c23          	sw	a5,-40(s0)
    80002dbc:	0001                	nop
    80002dbe:	fe042783          	lw	a5,-32(s0)
    80002dc2:	fcf42823          	sw	a5,-48(s0)
    80002dc6:	fe442783          	lw	a5,-28(s0)
    80002dca:	fef42023          	sw	a5,-32(s0)
    80002dce:	fe842783          	lw	a5,-24(s0)
    80002dd2:	fef42223          	sw	a5,-28(s0)
    80002dd6:	fec42783          	lw	a5,-20(s0)
    80002dda:	873e                	mv	a4,a5
    80002ddc:	fdc42783          	lw	a5,-36(s0)
    80002de0:	9fb9                	addw	a5,a5,a4
    80002de2:	0007871b          	sext.w	a4,a5
    80002de6:	97818693          	addi	a3,gp,-1672 # 80006070 <K>
    80002dea:	fd446783          	lwu	a5,-44(s0)
    80002dee:	078a                	slli	a5,a5,0x2
    80002df0:	97b6                	add	a5,a5,a3
    80002df2:	439c                	lw	a5,0(a5)
    80002df4:	9fb9                	addw	a5,a5,a4
    80002df6:	0007871b          	sext.w	a4,a5
    80002dfa:	fd846783          	lwu	a5,-40(s0)
    80002dfe:	078a                	slli	a5,a5,0x2
    80002e00:	fc043683          	ld	a3,-64(s0)
    80002e04:	97b6                	add	a5,a5,a3
    80002e06:	439c                	lw	a5,0(a5)
    80002e08:	9fb9                	addw	a5,a5,a4
    80002e0a:	0007869b          	sext.w	a3,a5
    80002e0e:	00003717          	auipc	a4,0x3
    80002e12:	16270713          	addi	a4,a4,354 # 80005f70 <S>
    80002e16:	fd446783          	lwu	a5,-44(s0)
    80002e1a:	078a                	slli	a5,a5,0x2
    80002e1c:	97ba                	add	a5,a5,a4
    80002e1e:	439c                	lw	a5,0(a5)
    80002e20:	85be                	mv	a1,a5
    80002e22:	8536                	mv	a0,a3
    80002e24:	190000ef          	jal	ra,80002fb4 <rotateLeft>
    80002e28:	87aa                	mv	a5,a0
    80002e2a:	2781                	sext.w	a5,a5
    80002e2c:	fe842703          	lw	a4,-24(s0)
    80002e30:	9fb9                	addw	a5,a5,a4
    80002e32:	fef42423          	sw	a5,-24(s0)
    80002e36:	fd042783          	lw	a5,-48(s0)
    80002e3a:	fef42623          	sw	a5,-20(s0)
    80002e3e:	fd442783          	lw	a5,-44(s0)
    80002e42:	2785                	addiw	a5,a5,1
    80002e44:	fcf42a23          	sw	a5,-44(s0)
    80002e48:	fd442783          	lw	a5,-44(s0)
    80002e4c:	0007871b          	sext.w	a4,a5
    80002e50:	03f00793          	li	a5,63
    80002e54:	e6e7f3e3          	bgeu	a5,a4,80002cba <md5Step+0x3e>
    80002e58:	fc843783          	ld	a5,-56(s0)
    80002e5c:	439c                	lw	a5,0(a5)
    80002e5e:	fec42703          	lw	a4,-20(s0)
    80002e62:	9fb9                	addw	a5,a5,a4
    80002e64:	0007871b          	sext.w	a4,a5
    80002e68:	fc843783          	ld	a5,-56(s0)
    80002e6c:	c398                	sw	a4,0(a5)
    80002e6e:	fc843783          	ld	a5,-56(s0)
    80002e72:	0791                	addi	a5,a5,4
    80002e74:	4398                	lw	a4,0(a5)
    80002e76:	fc843783          	ld	a5,-56(s0)
    80002e7a:	0791                	addi	a5,a5,4
    80002e7c:	fe842683          	lw	a3,-24(s0)
    80002e80:	9f35                	addw	a4,a4,a3
    80002e82:	2701                	sext.w	a4,a4
    80002e84:	c398                	sw	a4,0(a5)
    80002e86:	fc843783          	ld	a5,-56(s0)
    80002e8a:	07a1                	addi	a5,a5,8
    80002e8c:	4398                	lw	a4,0(a5)
    80002e8e:	fc843783          	ld	a5,-56(s0)
    80002e92:	07a1                	addi	a5,a5,8
    80002e94:	fe442683          	lw	a3,-28(s0)
    80002e98:	9f35                	addw	a4,a4,a3
    80002e9a:	2701                	sext.w	a4,a4
    80002e9c:	c398                	sw	a4,0(a5)
    80002e9e:	fc843783          	ld	a5,-56(s0)
    80002ea2:	07b1                	addi	a5,a5,12
    80002ea4:	4398                	lw	a4,0(a5)
    80002ea6:	fc843783          	ld	a5,-56(s0)
    80002eaa:	07b1                	addi	a5,a5,12
    80002eac:	fe042683          	lw	a3,-32(s0)
    80002eb0:	9f35                	addw	a4,a4,a3
    80002eb2:	2701                	sext.w	a4,a4
    80002eb4:	c398                	sw	a4,0(a5)
    80002eb6:	0001                	nop
    80002eb8:	70e2                	ld	ra,56(sp)
    80002eba:	7442                	ld	s0,48(sp)
    80002ebc:	6121                	addi	sp,sp,64
    80002ebe:	8082                	ret

0000000080002ec0 <print_hash>:
    80002ec0:	7179                	addi	sp,sp,-48
    80002ec2:	f406                	sd	ra,40(sp)
    80002ec4:	f022                	sd	s0,32(sp)
    80002ec6:	1800                	addi	s0,sp,48
    80002ec8:	fca43c23          	sd	a0,-40(s0)
    80002ecc:	fe042623          	sw	zero,-20(s0)
    80002ed0:	a02d                	j	80002efa <print_hash+0x3a>
    80002ed2:	fec46783          	lwu	a5,-20(s0)
    80002ed6:	fd843703          	ld	a4,-40(s0)
    80002eda:	97ba                	add	a5,a5,a4
    80002edc:	0007c783          	lbu	a5,0(a5)
    80002ee0:	2781                	sext.w	a5,a5
    80002ee2:	85be                	mv	a1,a5
    80002ee4:	00003517          	auipc	a0,0x3
    80002ee8:	cec50513          	addi	a0,a0,-788 # 80005bd0 <__rodata_start+0xe18>
    80002eec:	9d9fd0ef          	jal	ra,800008c4 <printf>
    80002ef0:	fec42783          	lw	a5,-20(s0)
    80002ef4:	2785                	addiw	a5,a5,1
    80002ef6:	fef42623          	sw	a5,-20(s0)
    80002efa:	fec42783          	lw	a5,-20(s0)
    80002efe:	0007871b          	sext.w	a4,a5
    80002f02:	47bd                	li	a5,15
    80002f04:	fce7f7e3          	bgeu	a5,a4,80002ed2 <print_hash+0x12>
    80002f08:	00003517          	auipc	a0,0x3
    80002f0c:	cd050513          	addi	a0,a0,-816 # 80005bd8 <__rodata_start+0xe20>
    80002f10:	9b5fd0ef          	jal	ra,800008c4 <printf>
    80002f14:	0001                	nop
    80002f16:	70a2                	ld	ra,40(sp)
    80002f18:	7402                	ld	s0,32(sp)
    80002f1a:	6145                	addi	sp,sp,48
    80002f1c:	8082                	ret

0000000080002f1e <md5>:
    80002f1e:	7175                	addi	sp,sp,-144
    80002f20:	e506                	sd	ra,136(sp)
    80002f22:	e122                	sd	s0,128(sp)
    80002f24:	0900                	addi	s0,sp,144
    80002f26:	f6a43c23          	sd	a0,-136(s0)
    80002f2a:	87ae                	mv	a5,a1
    80002f2c:	f6f42a23          	sw	a5,-140(s0)
    80002f30:	f8040793          	addi	a5,s0,-128
    80002f34:	853e                	mv	a0,a5
    80002f36:	91dff0ef          	jal	ra,80002852 <md5Init>
    80002f3a:	f7442703          	lw	a4,-140(s0)
    80002f3e:	f8040793          	addi	a5,s0,-128
    80002f42:	863a                	mv	a2,a4
    80002f44:	f7843583          	ld	a1,-136(s0)
    80002f48:	853e                	mv	a0,a5
    80002f4a:	95bff0ef          	jal	ra,800028a4 <md5Update>
    80002f4e:	f8040793          	addi	a5,s0,-128
    80002f52:	853e                	mv	a0,a5
    80002f54:	ac5ff0ef          	jal	ra,80002a18 <md5Finalize>
    80002f58:	fe042623          	sw	zero,-20(s0)
    80002f5c:	fe042423          	sw	zero,-24(s0)
    80002f60:	a825                	j	80002f98 <md5+0x7a>
    80002f62:	fe842783          	lw	a5,-24(s0)
    80002f66:	17c1                	addi	a5,a5,-16
    80002f68:	97a2                	add	a5,a5,s0
    80002f6a:	fe87c783          	lbu	a5,-24(a5)
    80002f6e:	0007871b          	sext.w	a4,a5
    80002f72:	fe842783          	lw	a5,-24(s0)
    80002f76:	0037979b          	slliw	a5,a5,0x3
    80002f7a:	2781                	sext.w	a5,a5
    80002f7c:	00f717bb          	sllw	a5,a4,a5
    80002f80:	2781                	sext.w	a5,a5
    80002f82:	2781                	sext.w	a5,a5
    80002f84:	fec42703          	lw	a4,-20(s0)
    80002f88:	9fb9                	addw	a5,a5,a4
    80002f8a:	fef42623          	sw	a5,-20(s0)
    80002f8e:	fe842783          	lw	a5,-24(s0)
    80002f92:	2785                	addiw	a5,a5,1
    80002f94:	fef42423          	sw	a5,-24(s0)
    80002f98:	fe842783          	lw	a5,-24(s0)
    80002f9c:	0007871b          	sext.w	a4,a5
    80002fa0:	478d                	li	a5,3
    80002fa2:	fce7d0e3          	bge	a5,a4,80002f62 <md5+0x44>
    80002fa6:	fec42783          	lw	a5,-20(s0)
    80002faa:	853e                	mv	a0,a5
    80002fac:	60aa                	ld	ra,136(sp)
    80002fae:	640a                	ld	s0,128(sp)
    80002fb0:	6149                	addi	sp,sp,144
    80002fb2:	8082                	ret

0000000080002fb4 <rotateLeft>:
    80002fb4:	1101                	addi	sp,sp,-32
    80002fb6:	ec22                	sd	s0,24(sp)
    80002fb8:	1000                	addi	s0,sp,32
    80002fba:	87aa                	mv	a5,a0
    80002fbc:	872e                	mv	a4,a1
    80002fbe:	fef42623          	sw	a5,-20(s0)
    80002fc2:	87ba                	mv	a5,a4
    80002fc4:	fef42423          	sw	a5,-24(s0)
    80002fc8:	fec42783          	lw	a5,-20(s0)
    80002fcc:	fe842703          	lw	a4,-24(s0)
    80002fd0:	00e7973b          	sllw	a4,a5,a4
    80002fd4:	fe842683          	lw	a3,-24(s0)
    80002fd8:	40d006bb          	negw	a3,a3
    80002fdc:	8afd                	andi	a3,a3,31
    80002fde:	00d7d7bb          	srlw	a5,a5,a3
    80002fe2:	8fd9                	or	a5,a5,a4
    80002fe4:	2781                	sext.w	a5,a5
    80002fe6:	853e                	mv	a0,a5
    80002fe8:	6462                	ld	s0,24(sp)
    80002fea:	6105                	addi	sp,sp,32
    80002fec:	8082                	ret

0000000080002fee <murmur_32_scramble>:
    80002fee:	1101                	addi	sp,sp,-32
    80002ff0:	ec22                	sd	s0,24(sp)
    80002ff2:	1000                	addi	s0,sp,32
    80002ff4:	87aa                	mv	a5,a0
    80002ff6:	fef42623          	sw	a5,-20(s0)
    80002ffa:	fec42783          	lw	a5,-20(s0)
    80002ffe:	873e                	mv	a4,a5
    80003000:	cc9e37b7          	lui	a5,0xcc9e3
    80003004:	d517879b          	addiw	a5,a5,-687 # ffffffffcc9e2d51 <__stack_pointer$+0xffffffff449e3151>
    80003008:	02f707bb          	mulw	a5,a4,a5
    8000300c:	fef42623          	sw	a5,-20(s0)
    80003010:	fec42783          	lw	a5,-20(s0)
    80003014:	00f7971b          	slliw	a4,a5,0xf
    80003018:	0117d79b          	srliw	a5,a5,0x11
    8000301c:	8fd9                	or	a5,a5,a4
    8000301e:	fef42623          	sw	a5,-20(s0)
    80003022:	fec42783          	lw	a5,-20(s0)
    80003026:	873e                	mv	a4,a5
    80003028:	1b8737b7          	lui	a5,0x1b873
    8000302c:	5937879b          	addiw	a5,a5,1427 # 1b873593 <_free_space+0x13881f4b>
    80003030:	02f707bb          	mulw	a5,a4,a5
    80003034:	fef42623          	sw	a5,-20(s0)
    80003038:	fec42783          	lw	a5,-20(s0)
    8000303c:	853e                	mv	a0,a5
    8000303e:	6462                	ld	s0,24(sp)
    80003040:	6105                	addi	sp,sp,32
    80003042:	8082                	ret

0000000080003044 <murmur3_32>:
    80003044:	7139                	addi	sp,sp,-64
    80003046:	fc06                	sd	ra,56(sp)
    80003048:	f822                	sd	s0,48(sp)
    8000304a:	0080                	addi	s0,sp,64
    8000304c:	fca43423          	sd	a0,-56(s0)
    80003050:	fcb43023          	sd	a1,-64(s0)
    80003054:	fc042a23          	sw	zero,-44(s0)
    80003058:	3e800793          	li	a5,1000
    8000305c:	fef42623          	sw	a5,-20(s0)
    80003060:	fc043783          	ld	a5,-64(s0)
    80003064:	fef43023          	sd	a5,-32(s0)
    80003068:	a8b5                	j	800030e4 <murmur3_32+0xa0>
    8000306a:	fd440793          	addi	a5,s0,-44
    8000306e:	4611                	li	a2,4
    80003070:	fc843583          	ld	a1,-56(s0)
    80003074:	853e                	mv	a0,a5
    80003076:	29f010ef          	jal	ra,80004b14 <memcpy>
    8000307a:	fc843783          	ld	a5,-56(s0)
    8000307e:	0791                	addi	a5,a5,4
    80003080:	fcf43423          	sd	a5,-56(s0)
    80003084:	fd442783          	lw	a5,-44(s0)
    80003088:	853e                	mv	a0,a5
    8000308a:	f65ff0ef          	jal	ra,80002fee <murmur_32_scramble>
    8000308e:	87aa                	mv	a5,a0
    80003090:	2781                	sext.w	a5,a5
    80003092:	873e                	mv	a4,a5
    80003094:	fec42783          	lw	a5,-20(s0)
    80003098:	8fb9                	xor	a5,a5,a4
    8000309a:	fef42623          	sw	a5,-20(s0)
    8000309e:	fec42783          	lw	a5,-20(s0)
    800030a2:	00d7971b          	slliw	a4,a5,0xd
    800030a6:	0137d79b          	srliw	a5,a5,0x13
    800030aa:	8fd9                	or	a5,a5,a4
    800030ac:	fef42623          	sw	a5,-20(s0)
    800030b0:	fec42783          	lw	a5,-20(s0)
    800030b4:	873e                	mv	a4,a5
    800030b6:	87ba                	mv	a5,a4
    800030b8:	0027979b          	slliw	a5,a5,0x2
    800030bc:	9fb9                	addw	a5,a5,a4
    800030be:	0007871b          	sext.w	a4,a5
    800030c2:	e65477b7          	lui	a5,0xe6547
    800030c6:	b647879b          	addiw	a5,a5,-1180 # ffffffffe6546b64 <__stack_pointer$+0xffffffff5e546f64>
    800030ca:	9fb9                	addw	a5,a5,a4
    800030cc:	fef42623          	sw	a5,-20(s0)
    800030d0:	fc843783          	ld	a5,-56(s0)
    800030d4:	0791                	addi	a5,a5,4
    800030d6:	fcf43423          	sd	a5,-56(s0)
    800030da:	fe043783          	ld	a5,-32(s0)
    800030de:	17f1                	addi	a5,a5,-4
    800030e0:	fef43023          	sd	a5,-32(s0)
    800030e4:	fe043703          	ld	a4,-32(s0)
    800030e8:	478d                	li	a5,3
    800030ea:	f8e7e0e3          	bltu	a5,a4,8000306a <murmur3_32+0x26>
    800030ee:	fc042a23          	sw	zero,-44(s0)
    800030f2:	fc043783          	ld	a5,-64(s0)
    800030f6:	8b8d                	andi	a5,a5,3
    800030f8:	fcf43c23          	sd	a5,-40(s0)
    800030fc:	a82d                	j	80003136 <murmur3_32+0xf2>
    800030fe:	fd442783          	lw	a5,-44(s0)
    80003102:	0087979b          	slliw	a5,a5,0x8
    80003106:	2781                	sext.w	a5,a5
    80003108:	fcf42a23          	sw	a5,-44(s0)
    8000310c:	fd843783          	ld	a5,-40(s0)
    80003110:	17fd                	addi	a5,a5,-1
    80003112:	fc843703          	ld	a4,-56(s0)
    80003116:	97ba                	add	a5,a5,a4
    80003118:	0007c783          	lbu	a5,0(a5)
    8000311c:	0007871b          	sext.w	a4,a5
    80003120:	fd442783          	lw	a5,-44(s0)
    80003124:	8fd9                	or	a5,a5,a4
    80003126:	2781                	sext.w	a5,a5
    80003128:	fcf42a23          	sw	a5,-44(s0)
    8000312c:	fd843783          	ld	a5,-40(s0)
    80003130:	17fd                	addi	a5,a5,-1
    80003132:	fcf43c23          	sd	a5,-40(s0)
    80003136:	fd843783          	ld	a5,-40(s0)
    8000313a:	f3f1                	bnez	a5,800030fe <murmur3_32+0xba>
    8000313c:	fd442783          	lw	a5,-44(s0)
    80003140:	853e                	mv	a0,a5
    80003142:	eadff0ef          	jal	ra,80002fee <murmur_32_scramble>
    80003146:	87aa                	mv	a5,a0
    80003148:	2781                	sext.w	a5,a5
    8000314a:	873e                	mv	a4,a5
    8000314c:	fec42783          	lw	a5,-20(s0)
    80003150:	8fb9                	xor	a5,a5,a4
    80003152:	fef42623          	sw	a5,-20(s0)
    80003156:	fc043783          	ld	a5,-64(s0)
    8000315a:	2781                	sext.w	a5,a5
    8000315c:	fec42703          	lw	a4,-20(s0)
    80003160:	8fb9                	xor	a5,a5,a4
    80003162:	fef42623          	sw	a5,-20(s0)
    80003166:	fec42783          	lw	a5,-20(s0)
    8000316a:	0107d79b          	srliw	a5,a5,0x10
    8000316e:	2781                	sext.w	a5,a5
    80003170:	fec42703          	lw	a4,-20(s0)
    80003174:	8fb9                	xor	a5,a5,a4
    80003176:	fef42623          	sw	a5,-20(s0)
    8000317a:	fec42783          	lw	a5,-20(s0)
    8000317e:	873e                	mv	a4,a5
    80003180:	85ebd7b7          	lui	a5,0x85ebd
    80003184:	a6b7879b          	addiw	a5,a5,-1429 # ffffffff85ebca6b <__stack_pointer$+0xfffffffefdebce6b>
    80003188:	02f707bb          	mulw	a5,a4,a5
    8000318c:	fef42623          	sw	a5,-20(s0)
    80003190:	fec42783          	lw	a5,-20(s0)
    80003194:	00d7d79b          	srliw	a5,a5,0xd
    80003198:	2781                	sext.w	a5,a5
    8000319a:	fec42703          	lw	a4,-20(s0)
    8000319e:	8fb9                	xor	a5,a5,a4
    800031a0:	fef42623          	sw	a5,-20(s0)
    800031a4:	fec42783          	lw	a5,-20(s0)
    800031a8:	873e                	mv	a4,a5
    800031aa:	c2b2b7b7          	lui	a5,0xc2b2b
    800031ae:	e357879b          	addiw	a5,a5,-459 # ffffffffc2b2ae35 <__stack_pointer$+0xffffffff3ab2b235>
    800031b2:	02f707bb          	mulw	a5,a4,a5
    800031b6:	fef42623          	sw	a5,-20(s0)
    800031ba:	fec42783          	lw	a5,-20(s0)
    800031be:	0107d79b          	srliw	a5,a5,0x10
    800031c2:	2781                	sext.w	a5,a5
    800031c4:	fec42703          	lw	a4,-20(s0)
    800031c8:	8fb9                	xor	a5,a5,a4
    800031ca:	fef42623          	sw	a5,-20(s0)
    800031ce:	fec42783          	lw	a5,-20(s0)
    800031d2:	853e                	mv	a0,a5
    800031d4:	70e2                	ld	ra,56(sp)
    800031d6:	7442                	ld	s0,48(sp)
    800031d8:	6121                	addi	sp,sp,64
    800031da:	8082                	ret

00000000800031dc <rol32>:
    800031dc:	1101                	addi	sp,sp,-32
    800031de:	ec22                	sd	s0,24(sp)
    800031e0:	1000                	addi	s0,sp,32
    800031e2:	87aa                	mv	a5,a0
    800031e4:	872e                	mv	a4,a1
    800031e6:	fef42623          	sw	a5,-20(s0)
    800031ea:	87ba                	mv	a5,a4
    800031ec:	fef42423          	sw	a5,-24(s0)
    800031f0:	fe842783          	lw	a5,-24(s0)
    800031f4:	8bfd                	andi	a5,a5,31
    800031f6:	2781                	sext.w	a5,a5
    800031f8:	fec42703          	lw	a4,-20(s0)
    800031fc:	00f717bb          	sllw	a5,a4,a5
    80003200:	0007871b          	sext.w	a4,a5
    80003204:	fe842783          	lw	a5,-24(s0)
    80003208:	40f007bb          	negw	a5,a5
    8000320c:	2781                	sext.w	a5,a5
    8000320e:	8bfd                	andi	a5,a5,31
    80003210:	2781                	sext.w	a5,a5
    80003212:	fec42683          	lw	a3,-20(s0)
    80003216:	00f6d7bb          	srlw	a5,a3,a5
    8000321a:	2781                	sext.w	a5,a5
    8000321c:	8fd9                	or	a5,a5,a4
    8000321e:	2781                	sext.w	a5,a5
    80003220:	853e                	mv	a0,a5
    80003222:	6462                	ld	s0,24(sp)
    80003224:	6105                	addi	sp,sp,32
    80003226:	8082                	ret

0000000080003228 <__get_unaligned_cpu32>:
    80003228:	7179                	addi	sp,sp,-48
    8000322a:	f422                	sd	s0,40(sp)
    8000322c:	1800                	addi	s0,sp,48
    8000322e:	fca43c23          	sd	a0,-40(s0)
    80003232:	fd843783          	ld	a5,-40(s0)
    80003236:	fef43423          	sd	a5,-24(s0)
    8000323a:	fe843783          	ld	a5,-24(s0)
    8000323e:	0007c783          	lbu	a5,0(a5)
    80003242:	853e                	mv	a0,a5
    80003244:	7422                	ld	s0,40(sp)
    80003246:	6145                	addi	sp,sp,48
    80003248:	8082                	ret

000000008000324a <jhash>:
    8000324a:	7139                	addi	sp,sp,-64
    8000324c:	fc06                	sd	ra,56(sp)
    8000324e:	f822                	sd	s0,48(sp)
    80003250:	0080                	addi	s0,sp,64
    80003252:	fca43423          	sd	a0,-56(s0)
    80003256:	fc843783          	ld	a5,-56(s0)
    8000325a:	fcf43c23          	sd	a5,-40(s0)
    8000325e:	fc843503          	ld	a0,-56(s0)
    80003262:	2c3010ef          	jal	ra,80004d24 <strlen>
    80003266:	87aa                	mv	a5,a0
    80003268:	fcf42a23          	sw	a5,-44(s0)
    8000326c:	fd442783          	lw	a5,-44(s0)
    80003270:	873e                	mv	a4,a5
    80003272:	bd5b87b7          	lui	a5,0xbd5b8
    80003276:	dd97879b          	addiw	a5,a5,-551 # ffffffffbd5b7dd9 <__stack_pointer$+0xffffffff355b81d9>
    8000327a:	9fb9                	addw	a5,a5,a4
    8000327c:	fef42223          	sw	a5,-28(s0)
    80003280:	fe442783          	lw	a5,-28(s0)
    80003284:	fef42423          	sw	a5,-24(s0)
    80003288:	fe842783          	lw	a5,-24(s0)
    8000328c:	fef42623          	sw	a5,-20(s0)
    80003290:	aa7d                	j	8000344e <jhash+0x204>
    80003292:	fd843783          	ld	a5,-40(s0)
    80003296:	439c                	lw	a5,0(a5)
    80003298:	fec42703          	lw	a4,-20(s0)
    8000329c:	9fb9                	addw	a5,a5,a4
    8000329e:	fef42623          	sw	a5,-20(s0)
    800032a2:	fd843783          	ld	a5,-40(s0)
    800032a6:	0791                	addi	a5,a5,4
    800032a8:	439c                	lw	a5,0(a5)
    800032aa:	fe842703          	lw	a4,-24(s0)
    800032ae:	9fb9                	addw	a5,a5,a4
    800032b0:	fef42423          	sw	a5,-24(s0)
    800032b4:	fd843783          	ld	a5,-40(s0)
    800032b8:	07a1                	addi	a5,a5,8
    800032ba:	439c                	lw	a5,0(a5)
    800032bc:	fe442703          	lw	a4,-28(s0)
    800032c0:	9fb9                	addw	a5,a5,a4
    800032c2:	fef42223          	sw	a5,-28(s0)
    800032c6:	fec42783          	lw	a5,-20(s0)
    800032ca:	873e                	mv	a4,a5
    800032cc:	fe442783          	lw	a5,-28(s0)
    800032d0:	40f707bb          	subw	a5,a4,a5
    800032d4:	fef42623          	sw	a5,-20(s0)
    800032d8:	fe442783          	lw	a5,-28(s0)
    800032dc:	4591                	li	a1,4
    800032de:	853e                	mv	a0,a5
    800032e0:	efdff0ef          	jal	ra,800031dc <rol32>
    800032e4:	87aa                	mv	a5,a0
    800032e6:	2781                	sext.w	a5,a5
    800032e8:	873e                	mv	a4,a5
    800032ea:	fec42783          	lw	a5,-20(s0)
    800032ee:	8fb9                	xor	a5,a5,a4
    800032f0:	fef42623          	sw	a5,-20(s0)
    800032f4:	fe442783          	lw	a5,-28(s0)
    800032f8:	873e                	mv	a4,a5
    800032fa:	fe842783          	lw	a5,-24(s0)
    800032fe:	9fb9                	addw	a5,a5,a4
    80003300:	fef42223          	sw	a5,-28(s0)
    80003304:	fe842783          	lw	a5,-24(s0)
    80003308:	873e                	mv	a4,a5
    8000330a:	fec42783          	lw	a5,-20(s0)
    8000330e:	40f707bb          	subw	a5,a4,a5
    80003312:	fef42423          	sw	a5,-24(s0)
    80003316:	fec42783          	lw	a5,-20(s0)
    8000331a:	4599                	li	a1,6
    8000331c:	853e                	mv	a0,a5
    8000331e:	ebfff0ef          	jal	ra,800031dc <rol32>
    80003322:	87aa                	mv	a5,a0
    80003324:	2781                	sext.w	a5,a5
    80003326:	873e                	mv	a4,a5
    80003328:	fe842783          	lw	a5,-24(s0)
    8000332c:	8fb9                	xor	a5,a5,a4
    8000332e:	fef42423          	sw	a5,-24(s0)
    80003332:	fec42783          	lw	a5,-20(s0)
    80003336:	873e                	mv	a4,a5
    80003338:	fe442783          	lw	a5,-28(s0)
    8000333c:	9fb9                	addw	a5,a5,a4
    8000333e:	fef42623          	sw	a5,-20(s0)
    80003342:	fe442783          	lw	a5,-28(s0)
    80003346:	873e                	mv	a4,a5
    80003348:	fe842783          	lw	a5,-24(s0)
    8000334c:	40f707bb          	subw	a5,a4,a5
    80003350:	fef42223          	sw	a5,-28(s0)
    80003354:	fe842783          	lw	a5,-24(s0)
    80003358:	45a1                	li	a1,8
    8000335a:	853e                	mv	a0,a5
    8000335c:	e81ff0ef          	jal	ra,800031dc <rol32>
    80003360:	87aa                	mv	a5,a0
    80003362:	2781                	sext.w	a5,a5
    80003364:	873e                	mv	a4,a5
    80003366:	fe442783          	lw	a5,-28(s0)
    8000336a:	8fb9                	xor	a5,a5,a4
    8000336c:	fef42223          	sw	a5,-28(s0)
    80003370:	fe842783          	lw	a5,-24(s0)
    80003374:	873e                	mv	a4,a5
    80003376:	fec42783          	lw	a5,-20(s0)
    8000337a:	9fb9                	addw	a5,a5,a4
    8000337c:	fef42423          	sw	a5,-24(s0)
    80003380:	fec42783          	lw	a5,-20(s0)
    80003384:	873e                	mv	a4,a5
    80003386:	fe442783          	lw	a5,-28(s0)
    8000338a:	40f707bb          	subw	a5,a4,a5
    8000338e:	fef42623          	sw	a5,-20(s0)
    80003392:	fe442783          	lw	a5,-28(s0)
    80003396:	45c1                	li	a1,16
    80003398:	853e                	mv	a0,a5
    8000339a:	e43ff0ef          	jal	ra,800031dc <rol32>
    8000339e:	87aa                	mv	a5,a0
    800033a0:	2781                	sext.w	a5,a5
    800033a2:	873e                	mv	a4,a5
    800033a4:	fec42783          	lw	a5,-20(s0)
    800033a8:	8fb9                	xor	a5,a5,a4
    800033aa:	fef42623          	sw	a5,-20(s0)
    800033ae:	fe442783          	lw	a5,-28(s0)
    800033b2:	873e                	mv	a4,a5
    800033b4:	fe842783          	lw	a5,-24(s0)
    800033b8:	9fb9                	addw	a5,a5,a4
    800033ba:	fef42223          	sw	a5,-28(s0)
    800033be:	fe842783          	lw	a5,-24(s0)
    800033c2:	873e                	mv	a4,a5
    800033c4:	fec42783          	lw	a5,-20(s0)
    800033c8:	40f707bb          	subw	a5,a4,a5
    800033cc:	fef42423          	sw	a5,-24(s0)
    800033d0:	fec42783          	lw	a5,-20(s0)
    800033d4:	45cd                	li	a1,19
    800033d6:	853e                	mv	a0,a5
    800033d8:	e05ff0ef          	jal	ra,800031dc <rol32>
    800033dc:	87aa                	mv	a5,a0
    800033de:	2781                	sext.w	a5,a5
    800033e0:	873e                	mv	a4,a5
    800033e2:	fe842783          	lw	a5,-24(s0)
    800033e6:	8fb9                	xor	a5,a5,a4
    800033e8:	fef42423          	sw	a5,-24(s0)
    800033ec:	fec42783          	lw	a5,-20(s0)
    800033f0:	873e                	mv	a4,a5
    800033f2:	fe442783          	lw	a5,-28(s0)
    800033f6:	9fb9                	addw	a5,a5,a4
    800033f8:	fef42623          	sw	a5,-20(s0)
    800033fc:	fe442783          	lw	a5,-28(s0)
    80003400:	873e                	mv	a4,a5
    80003402:	fe842783          	lw	a5,-24(s0)
    80003406:	40f707bb          	subw	a5,a4,a5
    8000340a:	fef42223          	sw	a5,-28(s0)
    8000340e:	fe842783          	lw	a5,-24(s0)
    80003412:	4591                	li	a1,4
    80003414:	853e                	mv	a0,a5
    80003416:	dc7ff0ef          	jal	ra,800031dc <rol32>
    8000341a:	87aa                	mv	a5,a0
    8000341c:	2781                	sext.w	a5,a5
    8000341e:	873e                	mv	a4,a5
    80003420:	fe442783          	lw	a5,-28(s0)
    80003424:	8fb9                	xor	a5,a5,a4
    80003426:	fef42223          	sw	a5,-28(s0)
    8000342a:	fe842783          	lw	a5,-24(s0)
    8000342e:	873e                	mv	a4,a5
    80003430:	fec42783          	lw	a5,-20(s0)
    80003434:	9fb9                	addw	a5,a5,a4
    80003436:	fef42423          	sw	a5,-24(s0)
    8000343a:	fd442783          	lw	a5,-44(s0)
    8000343e:	37d1                	addiw	a5,a5,-12
    80003440:	fcf42a23          	sw	a5,-44(s0)
    80003444:	fd843783          	ld	a5,-40(s0)
    80003448:	07b1                	addi	a5,a5,12
    8000344a:	fcf43c23          	sd	a5,-40(s0)
    8000344e:	fd442783          	lw	a5,-44(s0)
    80003452:	0007871b          	sext.w	a4,a5
    80003456:	47b1                	li	a5,12
    80003458:	e2e7ede3          	bltu	a5,a4,80003292 <jhash+0x48>
    8000345c:	fd442783          	lw	a5,-44(s0)
    80003460:	0007871b          	sext.w	a4,a5
    80003464:	47b1                	li	a5,12
    80003466:	28e7ee63          	bltu	a5,a4,80003702 <jhash+0x4b8>
    8000346a:	fd446783          	lwu	a5,-44(s0)
    8000346e:	00279713          	slli	a4,a5,0x2
    80003472:	00002797          	auipc	a5,0x2
    80003476:	76a78793          	addi	a5,a5,1898 # 80005bdc <__rodata_start+0xe24>
    8000347a:	97ba                	add	a5,a5,a4
    8000347c:	439c                	lw	a5,0(a5)
    8000347e:	0007871b          	sext.w	a4,a5
    80003482:	00002797          	auipc	a5,0x2
    80003486:	75a78793          	addi	a5,a5,1882 # 80005bdc <__rodata_start+0xe24>
    8000348a:	97ba                	add	a5,a5,a4
    8000348c:	8782                	jr	a5
    8000348e:	fd843783          	ld	a5,-40(s0)
    80003492:	07ad                	addi	a5,a5,11
    80003494:	0007c783          	lbu	a5,0(a5)
    80003498:	2781                	sext.w	a5,a5
    8000349a:	0187979b          	slliw	a5,a5,0x18
    8000349e:	2781                	sext.w	a5,a5
    800034a0:	fe442703          	lw	a4,-28(s0)
    800034a4:	9fb9                	addw	a5,a5,a4
    800034a6:	fef42223          	sw	a5,-28(s0)
    800034aa:	fd843783          	ld	a5,-40(s0)
    800034ae:	07a9                	addi	a5,a5,10
    800034b0:	0007c783          	lbu	a5,0(a5)
    800034b4:	2781                	sext.w	a5,a5
    800034b6:	0107979b          	slliw	a5,a5,0x10
    800034ba:	2781                	sext.w	a5,a5
    800034bc:	fe442703          	lw	a4,-28(s0)
    800034c0:	9fb9                	addw	a5,a5,a4
    800034c2:	fef42223          	sw	a5,-28(s0)
    800034c6:	fd843783          	ld	a5,-40(s0)
    800034ca:	07a5                	addi	a5,a5,9
    800034cc:	0007c783          	lbu	a5,0(a5)
    800034d0:	2781                	sext.w	a5,a5
    800034d2:	0087979b          	slliw	a5,a5,0x8
    800034d6:	2781                	sext.w	a5,a5
    800034d8:	fe442703          	lw	a4,-28(s0)
    800034dc:	9fb9                	addw	a5,a5,a4
    800034de:	fef42223          	sw	a5,-28(s0)
    800034e2:	fd843783          	ld	a5,-40(s0)
    800034e6:	07a1                	addi	a5,a5,8
    800034e8:	0007c783          	lbu	a5,0(a5)
    800034ec:	2781                	sext.w	a5,a5
    800034ee:	fe442703          	lw	a4,-28(s0)
    800034f2:	9fb9                	addw	a5,a5,a4
    800034f4:	fef42223          	sw	a5,-28(s0)
    800034f8:	fd843783          	ld	a5,-40(s0)
    800034fc:	079d                	addi	a5,a5,7
    800034fe:	0007c783          	lbu	a5,0(a5)
    80003502:	2781                	sext.w	a5,a5
    80003504:	0187979b          	slliw	a5,a5,0x18
    80003508:	2781                	sext.w	a5,a5
    8000350a:	fe842703          	lw	a4,-24(s0)
    8000350e:	9fb9                	addw	a5,a5,a4
    80003510:	fef42423          	sw	a5,-24(s0)
    80003514:	fd843783          	ld	a5,-40(s0)
    80003518:	0799                	addi	a5,a5,6
    8000351a:	0007c783          	lbu	a5,0(a5)
    8000351e:	2781                	sext.w	a5,a5
    80003520:	0107979b          	slliw	a5,a5,0x10
    80003524:	2781                	sext.w	a5,a5
    80003526:	fe842703          	lw	a4,-24(s0)
    8000352a:	9fb9                	addw	a5,a5,a4
    8000352c:	fef42423          	sw	a5,-24(s0)
    80003530:	fd843783          	ld	a5,-40(s0)
    80003534:	0795                	addi	a5,a5,5
    80003536:	0007c783          	lbu	a5,0(a5)
    8000353a:	2781                	sext.w	a5,a5
    8000353c:	0087979b          	slliw	a5,a5,0x8
    80003540:	2781                	sext.w	a5,a5
    80003542:	fe842703          	lw	a4,-24(s0)
    80003546:	9fb9                	addw	a5,a5,a4
    80003548:	fef42423          	sw	a5,-24(s0)
    8000354c:	fd843783          	ld	a5,-40(s0)
    80003550:	0791                	addi	a5,a5,4
    80003552:	0007c783          	lbu	a5,0(a5)
    80003556:	2781                	sext.w	a5,a5
    80003558:	fe842703          	lw	a4,-24(s0)
    8000355c:	9fb9                	addw	a5,a5,a4
    8000355e:	fef42423          	sw	a5,-24(s0)
    80003562:	fd843783          	ld	a5,-40(s0)
    80003566:	078d                	addi	a5,a5,3
    80003568:	0007c783          	lbu	a5,0(a5)
    8000356c:	2781                	sext.w	a5,a5
    8000356e:	0187979b          	slliw	a5,a5,0x18
    80003572:	2781                	sext.w	a5,a5
    80003574:	fec42703          	lw	a4,-20(s0)
    80003578:	9fb9                	addw	a5,a5,a4
    8000357a:	fef42623          	sw	a5,-20(s0)
    8000357e:	fd843783          	ld	a5,-40(s0)
    80003582:	0789                	addi	a5,a5,2
    80003584:	0007c783          	lbu	a5,0(a5)
    80003588:	2781                	sext.w	a5,a5
    8000358a:	0107979b          	slliw	a5,a5,0x10
    8000358e:	2781                	sext.w	a5,a5
    80003590:	fec42703          	lw	a4,-20(s0)
    80003594:	9fb9                	addw	a5,a5,a4
    80003596:	fef42623          	sw	a5,-20(s0)
    8000359a:	fd843783          	ld	a5,-40(s0)
    8000359e:	0785                	addi	a5,a5,1
    800035a0:	0007c783          	lbu	a5,0(a5)
    800035a4:	2781                	sext.w	a5,a5
    800035a6:	0087979b          	slliw	a5,a5,0x8
    800035aa:	2781                	sext.w	a5,a5
    800035ac:	fec42703          	lw	a4,-20(s0)
    800035b0:	9fb9                	addw	a5,a5,a4
    800035b2:	fef42623          	sw	a5,-20(s0)
    800035b6:	fd843783          	ld	a5,-40(s0)
    800035ba:	0007c783          	lbu	a5,0(a5)
    800035be:	2781                	sext.w	a5,a5
    800035c0:	fec42703          	lw	a4,-20(s0)
    800035c4:	9fb9                	addw	a5,a5,a4
    800035c6:	fef42623          	sw	a5,-20(s0)
    800035ca:	fe442783          	lw	a5,-28(s0)
    800035ce:	873e                	mv	a4,a5
    800035d0:	fe842783          	lw	a5,-24(s0)
    800035d4:	8fb9                	xor	a5,a5,a4
    800035d6:	fef42223          	sw	a5,-28(s0)
    800035da:	fe842783          	lw	a5,-24(s0)
    800035de:	45b9                	li	a1,14
    800035e0:	853e                	mv	a0,a5
    800035e2:	bfbff0ef          	jal	ra,800031dc <rol32>
    800035e6:	87aa                	mv	a5,a0
    800035e8:	2781                	sext.w	a5,a5
    800035ea:	fe442703          	lw	a4,-28(s0)
    800035ee:	40f707bb          	subw	a5,a4,a5
    800035f2:	fef42223          	sw	a5,-28(s0)
    800035f6:	fec42783          	lw	a5,-20(s0)
    800035fa:	873e                	mv	a4,a5
    800035fc:	fe442783          	lw	a5,-28(s0)
    80003600:	8fb9                	xor	a5,a5,a4
    80003602:	fef42623          	sw	a5,-20(s0)
    80003606:	fe442783          	lw	a5,-28(s0)
    8000360a:	45ad                	li	a1,11
    8000360c:	853e                	mv	a0,a5
    8000360e:	bcfff0ef          	jal	ra,800031dc <rol32>
    80003612:	87aa                	mv	a5,a0
    80003614:	2781                	sext.w	a5,a5
    80003616:	fec42703          	lw	a4,-20(s0)
    8000361a:	40f707bb          	subw	a5,a4,a5
    8000361e:	fef42623          	sw	a5,-20(s0)
    80003622:	fe842783          	lw	a5,-24(s0)
    80003626:	873e                	mv	a4,a5
    80003628:	fec42783          	lw	a5,-20(s0)
    8000362c:	8fb9                	xor	a5,a5,a4
    8000362e:	fef42423          	sw	a5,-24(s0)
    80003632:	fec42783          	lw	a5,-20(s0)
    80003636:	45e5                	li	a1,25
    80003638:	853e                	mv	a0,a5
    8000363a:	ba3ff0ef          	jal	ra,800031dc <rol32>
    8000363e:	87aa                	mv	a5,a0
    80003640:	2781                	sext.w	a5,a5
    80003642:	fe842703          	lw	a4,-24(s0)
    80003646:	40f707bb          	subw	a5,a4,a5
    8000364a:	fef42423          	sw	a5,-24(s0)
    8000364e:	fe442783          	lw	a5,-28(s0)
    80003652:	873e                	mv	a4,a5
    80003654:	fe842783          	lw	a5,-24(s0)
    80003658:	8fb9                	xor	a5,a5,a4
    8000365a:	fef42223          	sw	a5,-28(s0)
    8000365e:	fe842783          	lw	a5,-24(s0)
    80003662:	45c1                	li	a1,16
    80003664:	853e                	mv	a0,a5
    80003666:	b77ff0ef          	jal	ra,800031dc <rol32>
    8000366a:	87aa                	mv	a5,a0
    8000366c:	2781                	sext.w	a5,a5
    8000366e:	fe442703          	lw	a4,-28(s0)
    80003672:	40f707bb          	subw	a5,a4,a5
    80003676:	fef42223          	sw	a5,-28(s0)
    8000367a:	fec42783          	lw	a5,-20(s0)
    8000367e:	873e                	mv	a4,a5
    80003680:	fe442783          	lw	a5,-28(s0)
    80003684:	8fb9                	xor	a5,a5,a4
    80003686:	fef42623          	sw	a5,-20(s0)
    8000368a:	fe442783          	lw	a5,-28(s0)
    8000368e:	4591                	li	a1,4
    80003690:	853e                	mv	a0,a5
    80003692:	b4bff0ef          	jal	ra,800031dc <rol32>
    80003696:	87aa                	mv	a5,a0
    80003698:	2781                	sext.w	a5,a5
    8000369a:	fec42703          	lw	a4,-20(s0)
    8000369e:	40f707bb          	subw	a5,a4,a5
    800036a2:	fef42623          	sw	a5,-20(s0)
    800036a6:	fe842783          	lw	a5,-24(s0)
    800036aa:	873e                	mv	a4,a5
    800036ac:	fec42783          	lw	a5,-20(s0)
    800036b0:	8fb9                	xor	a5,a5,a4
    800036b2:	fef42423          	sw	a5,-24(s0)
    800036b6:	fec42783          	lw	a5,-20(s0)
    800036ba:	45b9                	li	a1,14
    800036bc:	853e                	mv	a0,a5
    800036be:	b1fff0ef          	jal	ra,800031dc <rol32>
    800036c2:	87aa                	mv	a5,a0
    800036c4:	2781                	sext.w	a5,a5
    800036c6:	fe842703          	lw	a4,-24(s0)
    800036ca:	40f707bb          	subw	a5,a4,a5
    800036ce:	fef42423          	sw	a5,-24(s0)
    800036d2:	fe442783          	lw	a5,-28(s0)
    800036d6:	873e                	mv	a4,a5
    800036d8:	fe842783          	lw	a5,-24(s0)
    800036dc:	8fb9                	xor	a5,a5,a4
    800036de:	fef42223          	sw	a5,-28(s0)
    800036e2:	fe842783          	lw	a5,-24(s0)
    800036e6:	45e1                	li	a1,24
    800036e8:	853e                	mv	a0,a5
    800036ea:	af3ff0ef          	jal	ra,800031dc <rol32>
    800036ee:	87aa                	mv	a5,a0
    800036f0:	2781                	sext.w	a5,a5
    800036f2:	fe442703          	lw	a4,-28(s0)
    800036f6:	40f707bb          	subw	a5,a4,a5
    800036fa:	fef42223          	sw	a5,-28(s0)
    800036fe:	a011                	j	80003702 <jhash+0x4b8>
    80003700:	0001                	nop
    80003702:	fe442783          	lw	a5,-28(s0)
    80003706:	853e                	mv	a0,a5
    80003708:	70e2                	ld	ra,56(sp)
    8000370a:	7442                	ld	s0,48(sp)
    8000370c:	6121                	addi	sp,sp,64
    8000370e:	8082                	ret

0000000080003710 <rdcycle>:
    80003710:	1101                	addi	sp,sp,-32
    80003712:	ec22                	sd	s0,24(sp)
    80003714:	1000                	addi	s0,sp,32
    80003716:	c00027f3          	rdcycle	a5
    8000371a:	fef43423          	sd	a5,-24(s0)
    8000371e:	fe843783          	ld	a5,-24(s0)
    80003722:	853e                	mv	a0,a5
    80003724:	6462                	ld	s0,24(sp)
    80003726:	6105                	addi	sp,sp,32
    80003728:	8082                	ret

000000008000372a <bloom_init>:
    8000372a:	1141                	addi	sp,sp,-16
    8000372c:	e406                	sd	ra,8(sp)
    8000372e:	e022                	sd	s0,0(sp)
    80003730:	0800                	addi	s0,sp,16
    80003732:	3e800613          	li	a2,1000
    80003736:	4581                	li	a1,0
    80003738:	0000b517          	auipc	a0,0xb
    8000373c:	a9850513          	addi	a0,a0,-1384 # 8000e1d0 <bloom_filter>
    80003740:	240010ef          	jal	ra,80004980 <memset>
    80003744:	0001                	nop
    80003746:	60a2                	ld	ra,8(sp)
    80003748:	6402                	ld	s0,0(sp)
    8000374a:	0141                	addi	sp,sp,16
    8000374c:	8082                	ret

000000008000374e <key_generator>:
    8000374e:	7179                	addi	sp,sp,-48
    80003750:	f406                	sd	ra,40(sp)
    80003752:	f022                	sd	s0,32(sp)
    80003754:	1800                	addi	s0,sp,48
    80003756:	fca43c23          	sd	a0,-40(s0)
    8000375a:	87ae                	mv	a5,a1
    8000375c:	fcf42a23          	sw	a5,-44(s0)
    80003760:	fe042623          	sw	zero,-20(s0)
    80003764:	a835                	j	800037a0 <key_generator+0x52>
    80003766:	500010ef          	jal	ra,80004c66 <rand>
    8000376a:	87aa                	mv	a5,a0
    8000376c:	873e                	mv	a4,a5
    8000376e:	03400793          	li	a5,52
    80003772:	02f767bb          	remw	a5,a4,a5
    80003776:	fef42423          	sw	a5,-24(s0)
    8000377a:	fec42783          	lw	a5,-20(s0)
    8000377e:	fd843703          	ld	a4,-40(s0)
    80003782:	97ba                	add	a5,a5,a4
    80003784:	ab818693          	addi	a3,gp,-1352 # 800061b0 <charset.0>
    80003788:	fe842703          	lw	a4,-24(s0)
    8000378c:	9736                	add	a4,a4,a3
    8000378e:	00074703          	lbu	a4,0(a4)
    80003792:	00e78023          	sb	a4,0(a5)
    80003796:	fec42783          	lw	a5,-20(s0)
    8000379a:	2785                	addiw	a5,a5,1
    8000379c:	fef42623          	sw	a5,-20(s0)
    800037a0:	fec42783          	lw	a5,-20(s0)
    800037a4:	873e                	mv	a4,a5
    800037a6:	fd442783          	lw	a5,-44(s0)
    800037aa:	2701                	sext.w	a4,a4
    800037ac:	2781                	sext.w	a5,a5
    800037ae:	faf74ce3          	blt	a4,a5,80003766 <key_generator+0x18>
    800037b2:	fd442783          	lw	a5,-44(s0)
    800037b6:	fd843703          	ld	a4,-40(s0)
    800037ba:	97ba                	add	a5,a5,a4
    800037bc:	00078023          	sb	zero,0(a5)
    800037c0:	0001                	nop
    800037c2:	70a2                	ld	ra,40(sp)
    800037c4:	7402                	ld	s0,32(sp)
    800037c6:	6145                	addi	sp,sp,48
    800037c8:	8082                	ret

00000000800037ca <bloom_request>:
    800037ca:	711d                	addi	sp,sp,-96
    800037cc:	ec86                	sd	ra,88(sp)
    800037ce:	e8a2                	sd	s0,80(sp)
    800037d0:	1080                	addi	s0,sp,96
    800037d2:	faa43c23          	sd	a0,-72(s0)
    800037d6:	87ae                	mv	a5,a1
    800037d8:	fac43423          	sd	a2,-88(s0)
    800037dc:	8736                	mv	a4,a3
    800037de:	faf42a23          	sw	a5,-76(s0)
    800037e2:	87ba                	mv	a5,a4
    800037e4:	faf42823          	sw	a5,-80(s0)
    800037e8:	fc042a23          	sw	zero,-44(s0)
    800037ec:	fc042823          	sw	zero,-48(s0)
    800037f0:	4795                	li	a5,5
    800037f2:	fcf42623          	sw	a5,-52(s0)
    800037f6:	4785                	li	a5,1
    800037f8:	fef42623          	sw	a5,-20(s0)
    800037fc:	fc043023          	sd	zero,-64(s0)
    80003800:	00002597          	auipc	a1,0x2
    80003804:	41058593          	addi	a1,a1,1040 # 80005c10 <__rodata_start+0xe58>
    80003808:	fa843503          	ld	a0,-88(s0)
    8000380c:	21e010ef          	jal	ra,80004a2a <strcmp>
    80003810:	87aa                	mv	a5,a0
    80003812:	eb8d                	bnez	a5,80003844 <bloom_request+0x7a>
    80003814:	efdff0ef          	jal	ra,80003710 <rdcycle>
    80003818:	fea43023          	sd	a0,-32(s0)
    8000381c:	fb442783          	lw	a5,-76(s0)
    80003820:	85be                	mv	a1,a5
    80003822:	fb843503          	ld	a0,-72(s0)
    80003826:	81fff0ef          	jal	ra,80003044 <murmur3_32>
    8000382a:	87aa                	mv	a5,a0
    8000382c:	fcf42823          	sw	a5,-48(s0)
    80003830:	ee1ff0ef          	jal	ra,80003710 <rdcycle>
    80003834:	fca43c23          	sd	a0,-40(s0)
    80003838:	fd042783          	lw	a5,-48(s0)
    8000383c:	8b9d                	andi	a5,a5,7
    8000383e:	fef42623          	sw	a5,-20(s0)
    80003842:	a085                	j	800038a2 <bloom_request+0xd8>
    80003844:	00002597          	auipc	a1,0x2
    80003848:	3d458593          	addi	a1,a1,980 # 80005c18 <__rodata_start+0xe60>
    8000384c:	fa843503          	ld	a0,-88(s0)
    80003850:	1da010ef          	jal	ra,80004a2a <strcmp>
    80003854:	87aa                	mv	a5,a0
    80003856:	e795                	bnez	a5,80003882 <bloom_request+0xb8>
    80003858:	eb9ff0ef          	jal	ra,80003710 <rdcycle>
    8000385c:	fea43023          	sd	a0,-32(s0)
    80003860:	fb843503          	ld	a0,-72(s0)
    80003864:	9e7ff0ef          	jal	ra,8000324a <jhash>
    80003868:	87aa                	mv	a5,a0
    8000386a:	fcf42623          	sw	a5,-52(s0)
    8000386e:	ea3ff0ef          	jal	ra,80003710 <rdcycle>
    80003872:	fca43c23          	sd	a0,-40(s0)
    80003876:	fcc42783          	lw	a5,-52(s0)
    8000387a:	8b9d                	andi	a5,a5,7
    8000387c:	fef42623          	sw	a5,-20(s0)
    80003880:	a00d                	j	800038a2 <bloom_request+0xd8>
    80003882:	fa843583          	ld	a1,-88(s0)
    80003886:	00002517          	auipc	a0,0x2
    8000388a:	39a50513          	addi	a0,a0,922 # 80005c20 <__rodata_start+0xe68>
    8000388e:	836fd0ef          	jal	ra,800008c4 <printf>
    80003892:	00002517          	auipc	a0,0x2
    80003896:	3ae50513          	addi	a0,a0,942 # 80005c40 <__rodata_start+0xe88>
    8000389a:	82afd0ef          	jal	ra,800008c4 <printf>
    8000389e:	57fd                	li	a5,-1
    800038a0:	a069                	j	8000392a <bloom_request+0x160>
    800038a2:	fd843703          	ld	a4,-40(s0)
    800038a6:	fe043783          	ld	a5,-32(s0)
    800038aa:	40f707b3          	sub	a5,a4,a5
    800038ae:	fcf43023          	sd	a5,-64(s0)
    800038b2:	fec42783          	lw	a5,-20(s0)
    800038b6:	4037d79b          	sraiw	a5,a5,0x3
    800038ba:	0007871b          	sext.w	a4,a5
    800038be:	0000b697          	auipc	a3,0xb
    800038c2:	91268693          	addi	a3,a3,-1774 # 8000e1d0 <bloom_filter>
    800038c6:	fb042783          	lw	a5,-80(s0)
    800038ca:	9736                	add	a4,a4,a3
    800038cc:	97ba                	add	a5,a5,a4
    800038ce:	0007c783          	lbu	a5,0(a5)
    800038d2:	0187971b          	slliw	a4,a5,0x18
    800038d6:	4187571b          	sraiw	a4,a4,0x18
    800038da:	fec42783          	lw	a5,-20(s0)
    800038de:	fff7c793          	not	a5,a5
    800038e2:	2781                	sext.w	a5,a5
    800038e4:	8b9d                	andi	a5,a5,7
    800038e6:	2781                	sext.w	a5,a5
    800038e8:	4685                	li	a3,1
    800038ea:	00f697bb          	sllw	a5,a3,a5
    800038ee:	2781                	sext.w	a5,a5
    800038f0:	0187979b          	slliw	a5,a5,0x18
    800038f4:	4187d79b          	sraiw	a5,a5,0x18
    800038f8:	8fd9                	or	a5,a5,a4
    800038fa:	0187979b          	slliw	a5,a5,0x18
    800038fe:	4187d79b          	sraiw	a5,a5,0x18
    80003902:	fec42703          	lw	a4,-20(s0)
    80003906:	4037571b          	sraiw	a4,a4,0x3
    8000390a:	0007069b          	sext.w	a3,a4
    8000390e:	0ff7f713          	zext.b	a4,a5
    80003912:	0000b617          	auipc	a2,0xb
    80003916:	8be60613          	addi	a2,a2,-1858 # 8000e1d0 <bloom_filter>
    8000391a:	fb042783          	lw	a5,-80(s0)
    8000391e:	96b2                	add	a3,a3,a2
    80003920:	97b6                	add	a5,a5,a3
    80003922:	00e78023          	sb	a4,0(a5)
    80003926:	fc043783          	ld	a5,-64(s0)
    8000392a:	853e                	mv	a0,a5
    8000392c:	60e6                	ld	ra,88(sp)
    8000392e:	6446                	ld	s0,80(sp)
    80003930:	6125                	addi	sp,sp,96
    80003932:	8082                	ret

0000000080003934 <result_analysis>:
    80003934:	7139                	addi	sp,sp,-64
    80003936:	fc06                	sd	ra,56(sp)
    80003938:	f822                	sd	s0,48(sp)
    8000393a:	0080                	addi	s0,sp,64
    8000393c:	fca43423          	sd	a0,-56(s0)
    80003940:	fcb43023          	sd	a1,-64(s0)
    80003944:	fc843583          	ld	a1,-56(s0)
    80003948:	00002517          	auipc	a0,0x2
    8000394c:	31050513          	addi	a0,a0,784 # 80005c58 <__rodata_start+0xea0>
    80003950:	f75fc0ef          	jal	ra,800008c4 <printf>
    80003954:	fc043583          	ld	a1,-64(s0)
    80003958:	00002517          	auipc	a0,0x2
